---
triple:          'x86_64-apple-darwin'
binary-path:     '/Users/runner/work/whisper.cpp/whisper.cpp/build-visionos-sim/framework/whisper.framework/whisper'
relocations:
  - { offsetInCU: 0x52, offset: 0x52, size: 0x8, addend: 0x0, symName: __ZL16ASR_TENSOR_NAMES, symObjAddr: 0x6D9CF0, symBinAddr: 0x210870, symSize: 0x0 }
  - { offsetInCU: 0x18185, offset: 0x18185, size: 0x8, addend: 0x0, symName: __ZNSt3__1L19piecewise_constructE, symObjAddr: 0x58E7B, symBinAddr: 0x164BDB, symSize: 0x0 }
  - { offsetInCU: 0x62ED8, offset: 0x62ED8, size: 0x8, addend: 0x0, symName: '__ZNSt3__111__introsortINS_17_ClassicAlgPolicyERZL11whisper_vadP15whisper_contextP13whisper_state19whisper_full_paramsPKfiRNS_6vectorIfNS_9allocatorIfEEEEE4$_22P16vad_time_mappingLb0EEEvT1_SI_T0_NS_15iterator_traitsISI_E15difference_typeEb', symObjAddr: 0x414F0, symBinAddr: 0x429A0, symSize: 0xB80 }
  - { offsetInCU: 0x6498F, offset: 0x6498F, size: 0x8, addend: 0x0, symName: '__ZNSt3__127__insertion_sort_incompleteB8ue170006INS_17_ClassicAlgPolicyERZL11whisper_vadP15whisper_contextP13whisper_state19whisper_full_paramsPKfiRNS_6vectorIfNS_9allocatorIfEEEEE4$_22P16vad_time_mappingEEbT1_SI_T0_', symObjAddr: 0x42070, symBinAddr: 0x43520, symSize: 0x360 }
  - { offsetInCU: 0x6ABAE, offset: 0x6ABAE, size: 0x8, addend: 0x0, symName: '__ZNSt3__111__introsortINS_17_ClassicAlgPolicyERZ35whisper_lang_auto_detect_with_stateE4$_10P12whisper_pairIdiELb0EEEvT1_S7_T0_NS_15iterator_traitsIS7_E15difference_typeEb', symObjAddr: 0x44CA0, symBinAddr: 0x46150, symSize: 0xE30 }
  - { offsetInCU: 0x6C680, offset: 0x6C680, size: 0x8, addend: 0x0, symName: '__ZNSt3__127__insertion_sort_incompleteB8ue170006INS_17_ClassicAlgPolicyERZ35whisper_lang_auto_detect_with_stateE4$_10P12whisper_pairIdiEEEbT1_S7_T0_', symObjAddr: 0x45AD0, symBinAddr: 0x46F80, symSize: 0x480 }
  - { offsetInCU: 0x71C34, offset: 0x71C34, size: 0x8, addend: 0x0, symName: '__ZNSt3__111__introsortINS_17_ClassicAlgPolicyERZ23whisper_full_with_stateE4$_17PZ23whisper_full_with_stateE14beam_candidateLb0EEEvT1_S6_T0_NS_15iterator_traitsIS6_E15difference_typeEb', symObjAddr: 0x46FC0, symBinAddr: 0x48470, symSize: 0x2700 }
  - { offsetInCU: 0x7A2FE, offset: 0x7A2FE, size: 0x8, addend: 0x0, symName: '__ZNSt3__127__insertion_sort_incompleteB8ue170006INS_17_ClassicAlgPolicyERZ23whisper_full_with_stateE4$_17PZ23whisper_full_with_stateE14beam_candidateEEbT1_S6_T0_', symObjAddr: 0x498B0, symBinAddr: 0x4AD60, symSize: 0x5A0 }
  - { offsetInCU: 0x84665, offset: 0x84665, size: 0x8, addend: 0x0, symName: __ZNSt3__120__throw_out_of_rangeB8ue170006EPKc, symObjAddr: 0x25830, symBinAddr: 0x26CE0, symSize: 0x50 }
  - { offsetInCU: 0x84DDE, offset: 0x84DDE, size: 0x8, addend: 0x0, symName: __ZNSt3__125__throw_bad_function_callB8ue170006Ev, symObjAddr: 0x258D0, symBinAddr: 0x26D80, symSize: 0x40 }
  - { offsetInCU: 0x8573E, offset: 0x8573E, size: 0x8, addend: 0x0, symName: __ZNSt3__127__tree_balance_after_insertB8ue170006IPNS_16__tree_node_baseIPvEEEEvT_S5_, symObjAddr: 0x27480, symBinAddr: 0x28930, symSize: 0x160 }
  - { offsetInCU: 0x8634E, offset: 0x8634E, size: 0x8, addend: 0x0, symName: __ZNSt3__113__tree_removeB8ue170006IPNS_16__tree_node_baseIPvEEEEvT_S5_, symObjAddr: 0x2AC20, symBinAddr: 0x2C0D0, symSize: 0x3B0 }
  - { offsetInCU: 0x8E845, offset: 0x8E845, size: 0x8, addend: 0x0, symName: __ZNSt3__111regex_matchB8ue170006INS_11__wrap_iterIPKcEEcNS_12regex_traitsIcEEEEbT_S7_RKNS_11basic_regexIT0_T1_EENS_15regex_constants15match_flag_typeE, symObjAddr: 0x3DE70, symBinAddr: 0x3F320, symSize: 0x160 }
  - { offsetInCU: 0x91947, offset: 0x91947, size: 0x8, addend: 0x0, symName: __ZNSt3__120__throw_length_errorB8ue170006EPKc, symObjAddr: 0x24F00, symBinAddr: 0x263B0, symSize: 0x50 }
  - { offsetInCU: 0x9223F, offset: 0x9223F, size: 0x8, addend: 0x0, symName: __ZNSt3__116__throw_bad_castB8ue170006Ev, symObjAddr: 0x268D0, symBinAddr: 0x27D80, symSize: 0x40 }
  - { offsetInCU: 0x931B7, offset: 0x931B7, size: 0x8, addend: 0x0, symName: __ZNSt3__114__thread_proxyB8ue170006INS_5tupleIJNS_10unique_ptrINS_15__thread_structENS_14default_deleteIS3_EEEEPFviPKfRKNS_6vectorIfNS_9allocatorIfEEEEiiiiRK15whisper_filtersR11whisper_melEiS8_NS_17reference_wrapperISD_EExiiiNSM_ISG_EENSM_ISI_EEEEEEEPvSR_, symObjAddr: 0x29EB0, symBinAddr: 0x2B360, symSize: 0xA0 }
  - { offsetInCU: 0x93689, offset: 0x93689, size: 0x8, addend: 0x0, symName: __ZNSt3__119__throw_regex_errorB8ue170006ILNS_15regex_constants10error_typeE17EEEvv, symObjAddr: 0x2C110, symBinAddr: 0x2D5C0, symSize: 0x50 }
  - { offsetInCU: 0x944A1, offset: 0x944A1, size: 0x8, addend: 0x0, symName: __ZNSt3__119__throw_regex_errorB8ue170006ILNS_15regex_constants10error_typeE14EEEvv, symObjAddr: 0x2CA70, symBinAddr: 0x2DF20, symSize: 0x50 }
  - { offsetInCU: 0x94857, offset: 0x94857, size: 0x8, addend: 0x0, symName: __ZNSt3__119__throw_regex_errorB8ue170006ILNS_15regex_constants10error_typeE15EEEvv, symObjAddr: 0x35420, symBinAddr: 0x368D0, symSize: 0x50 }
  - { offsetInCU: 0x94B72, offset: 0x94B72, size: 0x8, addend: 0x0, symName: __ZNSt3__119__throw_regex_errorB8ue170006ILNS_15regex_constants10error_typeE6EEEvv, symObjAddr: 0x2D700, symBinAddr: 0x2EBB0, symSize: 0x50 }
  - { offsetInCU: 0x94D18, offset: 0x94D18, size: 0x8, addend: 0x0, symName: __ZNSt3__119__throw_regex_errorB8ue170006ILNS_15regex_constants10error_typeE11EEEvv, symObjAddr: 0x2EF80, symBinAddr: 0x30430, symSize: 0x50 }
  - { offsetInCU: 0x94D5C, offset: 0x94D5C, size: 0x8, addend: 0x0, symName: __ZNSt3__119__throw_regex_errorB8ue170006ILNS_15regex_constants10error_typeE8EEEvv, symObjAddr: 0x34E30, symBinAddr: 0x362E0, symSize: 0x50 }
  - { offsetInCU: 0x94D82, offset: 0x94D82, size: 0x8, addend: 0x0, symName: __ZNSt3__119__throw_regex_errorB8ue170006ILNS_15regex_constants10error_typeE7EEEvv, symObjAddr: 0x34E80, symBinAddr: 0x36330, symSize: 0x50 }
  - { offsetInCU: 0x94EB0, offset: 0x94EB0, size: 0x8, addend: 0x0, symName: __ZNSt3__119__throw_regex_errorB8ue170006ILNS_15regex_constants10error_typeE12EEEvv, symObjAddr: 0x2E4E0, symBinAddr: 0x2F990, symSize: 0x50 }
  - { offsetInCU: 0x94ED6, offset: 0x94ED6, size: 0x8, addend: 0x0, symName: __ZNSt3__119__throw_regex_errorB8ue170006ILNS_15regex_constants10error_typeE16EEEvv, symObjAddr: 0x2E530, symBinAddr: 0x2F9E0, symSize: 0x50 }
  - { offsetInCU: 0x959B5, offset: 0x959B5, size: 0x8, addend: 0x0, symName: __ZNSt3__119__throw_regex_errorB8ue170006ILNS_15regex_constants10error_typeE4EEEvv, symObjAddr: 0x2FA10, symBinAddr: 0x30EC0, symSize: 0x50 }
  - { offsetInCU: 0x959DB, offset: 0x959DB, size: 0x8, addend: 0x0, symName: __ZNSt3__119__throw_regex_errorB8ue170006ILNS_15regex_constants10error_typeE3EEEvv, symObjAddr: 0x2F1F0, symBinAddr: 0x306A0, symSize: 0x50 }
  - { offsetInCU: 0x95A01, offset: 0x95A01, size: 0x8, addend: 0x0, symName: __ZNSt3__119__throw_regex_errorB8ue170006ILNS_15regex_constants10error_typeE5EEEvv, symObjAddr: 0x31FC0, symBinAddr: 0x33470, symSize: 0x50 }
  - { offsetInCU: 0x965EC, offset: 0x965EC, size: 0x8, addend: 0x0, symName: __ZNSt3__119__throw_regex_errorB8ue170006ILNS_15regex_constants10error_typeE1EEEvv, symObjAddr: 0x33730, symBinAddr: 0x34BE0, symSize: 0x50 }
  - { offsetInCU: 0x96612, offset: 0x96612, size: 0x8, addend: 0x0, symName: __ZNSt3__119__throw_regex_errorB8ue170006ILNS_15regex_constants10error_typeE2EEEvv, symObjAddr: 0x33DE0, symBinAddr: 0x35290, symSize: 0x50 }
  - { offsetInCU: 0x96674, offset: 0x96674, size: 0x8, addend: 0x0, symName: __ZNSt3__119__throw_regex_errorB8ue170006ILNS_15regex_constants10error_typeE9EEEvv, symObjAddr: 0x34940, symBinAddr: 0x35DF0, symSize: 0x50 }
  - { offsetInCU: 0x993BC, offset: 0x993BC, size: 0x8, addend: 0x0, symName: __ZNSt3__135__uninitialized_allocator_copy_implB8ue170006INS_9allocatorINS_6vectorI23whisper_grammar_elementNS1_IS3_EEEEEEPS5_S7_S7_EET2_RT_T0_T1_S8_, symObjAddr: 0x403D0, symBinAddr: 0x41880, symSize: 0x100 }
  - { offsetInCU: 0x999D9, offset: 0x999D9, size: 0x8, addend: 0x0, symName: __ZNSt3__135__uninitialized_allocator_copy_implB8ue170006INS_9allocatorINS_6vectorIPK23whisper_grammar_elementNS1_IS5_EEEEEEPS7_S9_S9_EET2_RT_T0_T1_SA_, symObjAddr: 0x405F0, symBinAddr: 0x41AA0, symSize: 0x100 }
  - { offsetInCU: 0x9B81B, offset: 0x9B81B, size: 0x8, addend: 0x0, symName: '__ZNSt3__17__sort4B8ue170006INS_17_ClassicAlgPolicyERZL11whisper_vadP15whisper_contextP13whisper_state19whisper_full_paramsPKfiRNS_6vectorIfNS_9allocatorIfEEEEE4$_22P16vad_time_mappingEEvT1_SI_SI_SI_T0_', symObjAddr: 0x423D0, symBinAddr: 0x43880, symSize: 0xE0 }
  - { offsetInCU: 0x9CD45, offset: 0x9CD45, size: 0x8, addend: 0x0, symName: '__ZNSt3__17__sort4B8ue170006INS_17_ClassicAlgPolicyERZ35whisper_lang_auto_detect_with_stateE4$_10P12whisper_pairIdiEEEvT1_S7_S7_S7_T0_', symObjAddr: 0x45F50, symBinAddr: 0x47400, symSize: 0x170 }
  - { offsetInCU: 0x9E000, offset: 0x9E000, size: 0x8, addend: 0x0, symName: '__ZNSt3__114__thread_proxyB8ue170006INS_5tupleIJNS_10unique_ptrINS_15__thread_structENS_14default_deleteIS3_EEEEZ23whisper_full_with_stateE4$_16EEEEEPvS9_', symObjAddr: 0x46EF0, symBinAddr: 0x483A0, symSize: 0x80 }
  - { offsetInCU: 0x9EB85, offset: 0x9EB85, size: 0x8, addend: 0x0, symName: '__ZNSt3__17__sort3B8ue170006INS_17_ClassicAlgPolicyERZ23whisper_full_with_stateE4$_17PZ23whisper_full_with_stateE14beam_candidateEEjT1_S6_S6_T0_', symObjAddr: 0x497D0, symBinAddr: 0x4AC80, symSize: 0xE0 }
  - { offsetInCU: 0x9ECD8, offset: 0x9ECD8, size: 0x8, addend: 0x0, symName: __ZNSt3__19iter_swapB8ue170006IPZ23whisper_full_with_stateE14beam_candidateS2_EEvT_T0_, symObjAddr: 0x49E50, symBinAddr: 0x4B300, symSize: 0x250 }
  - { offsetInCU: 0x9F867, offset: 0x9F867, size: 0x8, addend: 0x0, symName: '__ZNSt3__17__sort4B8ue170006INS_17_ClassicAlgPolicyERZ23whisper_full_with_stateE4$_17PZ23whisper_full_with_stateE14beam_candidateEEvT1_S6_S6_S6_T0_', symObjAddr: 0x4A0A0, symBinAddr: 0x4B550, symSize: 0xD0 }
  - { offsetInCU: 0x9F9E5, offset: 0x9F9E5, size: 0x8, addend: 0x0, symName: '__ZNSt3__124__sort5_maybe_branchlessB8ue170006INS_17_ClassicAlgPolicyERZ23whisper_full_with_stateE4$_17PZ23whisper_full_with_stateE14beam_candidateEENS_9enable_ifIXntsr21__use_branchless_sortIT0_T1_EE5valueEvE4typeES8_S8_S8_S8_S8_S7_', symObjAddr: 0x496C0, symBinAddr: 0x4AB70, symSize: 0x110 }
  - { offsetInCU: 0x9FD30, offset: 0x9FD30, size: 0x8, addend: 0x0, symName: '__ZNSt3__114__thread_proxyB8ue170006INS_5tupleIJNS_10unique_ptrINS_15__thread_structENS_14default_deleteIS3_EEEEZ23whisper_full_with_stateE4$_18EEEEEPvS9_', symObjAddr: 0x4A170, symBinAddr: 0x4B620, symSize: 0x100 }
  - { offsetInCU: 0xA070D, offset: 0xA070D, size: 0x8, addend: 0x0, symName: __ZNSt3__114__thread_proxyB8ue170006INS_5tupleIJNS_10unique_ptrINS_15__thread_structENS_14default_deleteIS3_EEEEPFiP15whisper_contextP13whisper_state19whisper_full_paramsPKfiES8_SA_SB_SD_iEEEEEPvSH_, symObjAddr: 0x4A3E0, symBinAddr: 0x4B890, symSize: 0xB0 }
  - { offsetInCU: 0xA0B99, offset: 0xA0B99, size: 0x8, addend: 0x0, symName: '__ZNSt3__114__thread_proxyB8ue170006INS_5tupleIJNS_10unique_ptrINS_15__thread_structENS_14default_deleteIS3_EEEEZ24whisper_bench_memcpy_strE4$_19iEEEEEPvS9_', symObjAddr: 0x4A4E0, symBinAddr: 0x4B990, symSize: 0x180 }
  - { offsetInCU: 0xA3966, offset: 0xA3966, size: 0x8, addend: 0x0, symName: __ZSt28__throw_bad_array_new_lengthB8ue170006v, symObjAddr: 0x24F80, symBinAddr: 0x26430, symSize: 0x40 }
  - { offsetInCU: 0xA4402, offset: 0xA4402, size: 0x8, addend: 0x0, symName: __ZL15ASR_TENSOR_INFO, symObjAddr: 0x6D9D08, symBinAddr: 0x210888, symSize: 0x0 }
  - { offsetInCU: 0xA4A21, offset: 0xA4A21, size: 0x8, addend: 0x0, symName: __ZL14VAD_TENSOR_OPS, symObjAddr: 0x6D9D20, symBinAddr: 0x2108A0, symSize: 0x0 }
  - { offsetInCU: 0xA4EBD, offset: 0xA4EBD, size: 0x8, addend: 0x0, symName: __ZL16VAD_TENSOR_NAMES, symObjAddr: 0x6D9D38, symBinAddr: 0x2108B8, symSize: 0x0 }
  - { offsetInCU: 0xA52D8, offset: 0xA52D8, size: 0x8, addend: 0x0, symName: __ZL12g_model_name, symObjAddr: 0x6D9D50, symBinAddr: 0x2108D0, symSize: 0x0 }
  - { offsetInCU: 0xA5900, offset: 0xA5900, size: 0x8, addend: 0x0, symName: __ZL6g_lang, symObjAddr: 0x6D9D68, symBinAddr: 0x2108E8, symSize: 0x0 }
  - { offsetInCU: 0xA5D49, offset: 0xA5D49, size: 0x8, addend: 0x0, symName: __ZL8g_aheads, symObjAddr: 0x6D9D80, symBinAddr: 0x210900, symSize: 0x0 }
  - { offsetInCU: 0xA6243, offset: 0xA6243, size: 0x8, addend: 0x0, symName: __ZN12_GLOBAL__N_112global_cacheE, symObjAddr: 0x6D9D98, symBinAddr: 0x210918, symSize: 0x0 }
  - { offsetInCU: 0xA62EB, offset: 0xA62EB, size: 0x8, addend: 0x0, symName: _whisper_print_system_info, symObjAddr: 0xB2B0, symBinAddr: 0xC760, symSize: 0x3E0 }
  - { offsetInCU: 0xA6313, offset: 0xA6313, size: 0x8, addend: 0x0, symName: __ZZ25whisper_print_system_infoE1s, symObjAddr: 0x6DB058, symBinAddr: 0x211BD8, symSize: 0x0 }
  - { offsetInCU: 0xA70A3, offset: 0xA70A3, size: 0x8, addend: 0x0, symName: __ZL17non_speech_tokens, symObjAddr: 0x6DB078, symBinAddr: 0x211BF8, symSize: 0x0 }
  - { offsetInCU: 0xA7290, offset: 0xA7290, size: 0x8, addend: 0x0, symName: _whisper_bench_memcpy_str, symObjAddr: 0x22C00, symBinAddr: 0x240B0, symSize: 0xFB0 }
  - { offsetInCU: 0xA72B8, offset: 0xA72B8, size: 0x8, addend: 0x0, symName: __ZZ24whisper_bench_memcpy_strE1s, symObjAddr: 0x6DB090, symBinAddr: 0x211C10, symSize: 0x0 }
  - { offsetInCU: 0xA810B, offset: 0xA810B, size: 0x8, addend: 0x0, symName: _whisper_bench_ggml_mul_mat_str, symObjAddr: 0x23BD0, symBinAddr: 0x25080, symSize: 0x890 }
  - { offsetInCU: 0xA8133, offset: 0xA8133, size: 0x8, addend: 0x0, symName: __ZZ30whisper_bench_ggml_mul_mat_strE1s, symObjAddr: 0x6DB0B0, symBinAddr: 0x211C30, symSize: 0x0 }
  - { offsetInCU: 0xA92E7, offset: 0xA92E7, size: 0x8, addend: 0x0, symName: __ZL16g_aheads_tiny_en, symObjAddr: 0x58990, symBinAddr: 0x1646F0, symSize: 0x0 }
  - { offsetInCU: 0xA9310, offset: 0xA9310, size: 0x8, addend: 0x0, symName: __ZL13g_aheads_tiny, symObjAddr: 0x589D0, symBinAddr: 0x164730, symSize: 0x0 }
  - { offsetInCU: 0xA9339, offset: 0xA9339, size: 0x8, addend: 0x0, symName: __ZL16g_aheads_base_en, symObjAddr: 0x58A00, symBinAddr: 0x164760, symSize: 0x0 }
  - { offsetInCU: 0xA9362, offset: 0xA9362, size: 0x8, addend: 0x0, symName: __ZL13g_aheads_base, symObjAddr: 0x58A30, symBinAddr: 0x164790, symSize: 0x0 }
  - { offsetInCU: 0xA937D, offset: 0xA937D, size: 0x8, addend: 0x0, symName: __ZL17g_aheads_small_en, symObjAddr: 0x58A70, symBinAddr: 0x1647D0, symSize: 0x0 }
  - { offsetInCU: 0xA93A6, offset: 0xA93A6, size: 0x8, addend: 0x0, symName: __ZL14g_aheads_small, symObjAddr: 0x58B10, symBinAddr: 0x164870, symSize: 0x0 }
  - { offsetInCU: 0xA93CF, offset: 0xA93CF, size: 0x8, addend: 0x0, symName: __ZL18g_aheads_medium_en, symObjAddr: 0x58B60, symBinAddr: 0x1648C0, symSize: 0x0 }
  - { offsetInCU: 0xA93F8, offset: 0xA93F8, size: 0x8, addend: 0x0, symName: __ZL15g_aheads_medium, symObjAddr: 0x58BF0, symBinAddr: 0x164950, symSize: 0x0 }
  - { offsetInCU: 0xA9413, offset: 0xA9413, size: 0x8, addend: 0x0, symName: __ZL17g_aheads_large_v1, symObjAddr: 0x58C20, symBinAddr: 0x164980, symSize: 0x0 }
  - { offsetInCU: 0xA943C, offset: 0xA943C, size: 0x8, addend: 0x0, symName: __ZL17g_aheads_large_v2, symObjAddr: 0x58C70, symBinAddr: 0x1649D0, symSize: 0x0 }
  - { offsetInCU: 0xA9465, offset: 0xA9465, size: 0x8, addend: 0x0, symName: __ZL17g_aheads_large_v3, symObjAddr: 0x58D30, symBinAddr: 0x164A90, symSize: 0x0 }
  - { offsetInCU: 0xA9480, offset: 0xA9480, size: 0x8, addend: 0x0, symName: __ZL23g_aheads_large_v3_turbo, symObjAddr: 0x58D80, symBinAddr: 0x164AE0, symSize: 0x0 }
  - { offsetInCU: 0xA9499, offset: 0xA9499, size: 0x8, addend: 0x0, symName: __ZL27whisper_build_graph_encoderR15whisper_contextR13whisper_state, symObjAddr: 0x2A260, symBinAddr: 0x2B710, symSize: 0x660 }
  - { offsetInCU: 0xA9EBF, offset: 0xA9EBF, size: 0x8, addend: 0x0, symName: __ZL11decode_utf8PKc20whisper_partial_utf8, symObjAddr: 0x3DFD0, symBinAddr: 0x3F480, symSize: 0x730 }
  - { offsetInCU: 0xA9EEB, offset: 0xA9EEB, size: 0x8, addend: 0x0, symName: __ZZL11decode_utf8PKc20whisper_partial_utf8E6lookup, symObjAddr: 0x593C0, symBinAddr: 0x165120, symSize: 0x0 }
  - { offsetInCU: 0xAB531, offset: 0xAB531, size: 0x8, addend: 0x0, symName: __ZL7g_state.0, symObjAddr: 0x595F0, symBinAddr: 0x1A5390, symSize: 0x0 }
  - { offsetInCU: 0xAB53C, offset: 0xAB53C, size: 0x8, addend: 0x0, symName: __ZL7g_state.1, symObjAddr: 0x6DB0D0, symBinAddr: 0x211C50, symSize: 0x0 }
  - { offsetInCU: 0xAD8E0, offset: 0xAD8E0, size: 0x8, addend: 0x0, symName: _whisper_init_from_buffer_with_params_no_state, symObjAddr: 0x3A10, symBinAddr: 0x4EC0, symSize: 0x90 }
  - { offsetInCU: 0xB2B6B, offset: 0xB2B6B, size: 0x8, addend: 0x0, symName: _whisper_full_with_state, symObjAddr: 0x11110, symBinAddr: 0x125C0, symSize: 0x9D60 }
  - { offsetInCU: 0xD1AF5, offset: 0xD1AF5, size: 0x8, addend: 0x0, symName: _whisper_init_state, symObjAddr: 0x130, symBinAddr: 0x15E0, symSize: 0x1F00 }
  - { offsetInCU: 0xD7911, offset: 0xD7911, size: 0x8, addend: 0x0, symName: _whisper_vad_segments_from_probs, symObjAddr: 0xF980, symBinAddr: 0x10E30, symSize: 0x1250 }
  - { offsetInCU: 0xDCA0D, offset: 0xDCA0D, size: 0x8, addend: 0x0, symName: __ZNSt3__13mapI10asr_systemNS0_I10asr_tensorPKcNS_4lessIS2_EENS_9allocatorINS_4pairIKS2_S4_EEEEEENS5_IS1_EENS7_INS8_IKS1_SC_EEEEED1B8ue170006Ev, symObjAddr: 0x0, symBinAddr: 0x14B0, symSize: 0x10 }
  - { offsetInCU: 0xDCAC9, offset: 0xDCAC9, size: 0x8, addend: 0x0, symName: __ZNSt3__16__treeINS_12__value_typeI10asr_systemNS_3mapI10asr_tensorPKcNS_4lessIS4_EENS_9allocatorINS_4pairIKS4_S6_EEEEEEEENS_19__map_value_compareIS2_SF_NS7_IS2_EELb1EEENS9_ISF_EEE7destroyEPNS_11__tree_nodeISF_PvEE, symObjAddr: 0x430F0, symBinAddr: 0x445A0, symSize: 0x40 }
  - { offsetInCU: 0xDCDBA, offset: 0xDCDBA, size: 0x8, addend: 0x0, symName: __ZNSt3__13mapI10asr_tensor7ggml_opNS_4lessIS1_EENS_9allocatorINS_4pairIKS1_S2_EEEEED1B8ue170006Ev, symObjAddr: 0x10, symBinAddr: 0x14C0, symSize: 0x10 }
  - { offsetInCU: 0xDCE76, offset: 0xDCE76, size: 0x8, addend: 0x0, symName: __ZNSt3__16__treeINS_12__value_typeI10asr_tensor7ggml_opEENS_19__map_value_compareIS2_S4_NS_4lessIS2_EELb1EEENS_9allocatorIS4_EEE7destroyEPNS_11__tree_nodeIS4_PvEE, symObjAddr: 0x432A0, symBinAddr: 0x44750, symSize: 0x40 }
  - { offsetInCU: 0xDD04D, offset: 0xDD04D, size: 0x8, addend: 0x0, symName: __ZNSt3__13mapI10vad_tensor7ggml_opNS_4lessIS1_EENS_9allocatorINS_4pairIKS1_S2_EEEEED1B8ue170006Ev, symObjAddr: 0x20, symBinAddr: 0x14D0, symSize: 0x10 }
  - { offsetInCU: 0xDD109, offset: 0xDD109, size: 0x8, addend: 0x0, symName: __ZNSt3__16__treeINS_12__value_typeI10vad_tensor7ggml_opEENS_19__map_value_compareIS2_S4_NS_4lessIS2_EELb1EEENS_9allocatorIS4_EEE7destroyEPNS_11__tree_nodeIS4_PvEE, symObjAddr: 0x43450, symBinAddr: 0x44900, symSize: 0x40 }
  - { offsetInCU: 0xDD2E0, offset: 0xDD2E0, size: 0x8, addend: 0x0, symName: __ZNSt3__13mapI10vad_tensorPKcNS_4lessIS1_EENS_9allocatorINS_4pairIKS1_S3_EEEEED1B8ue170006Ev, symObjAddr: 0x30, symBinAddr: 0x14E0, symSize: 0x10 }
  - { offsetInCU: 0xDD39C, offset: 0xDD39C, size: 0x8, addend: 0x0, symName: __ZNSt3__16__treeINS_12__value_typeI10vad_tensorPKcEENS_19__map_value_compareIS2_S5_NS_4lessIS2_EELb1EEENS_9allocatorIS5_EEE7destroyEPNS_11__tree_nodeIS5_PvEE, symObjAddr: 0x43600, symBinAddr: 0x44AB0, symSize: 0x40 }
  - { offsetInCU: 0xDD573, offset: 0xDD573, size: 0x8, addend: 0x0, symName: __ZNSt3__13mapI7e_modelNS_12basic_stringIcNS_11char_traitsIcEENS_9allocatorIcEEEENS_4lessIS1_EENS5_INS_4pairIKS1_S7_EEEEED1B8ue170006Ev, symObjAddr: 0x40, symBinAddr: 0x14F0, symSize: 0x10 }
  - { offsetInCU: 0xDD62F, offset: 0xDD62F, size: 0x8, addend: 0x0, symName: __ZNSt3__16__treeINS_12__value_typeI7e_modelNS_12basic_stringIcNS_11char_traitsIcEENS_9allocatorIcEEEEEENS_19__map_value_compareIS2_S9_NS_4lessIS2_EELb1EEENS6_IS9_EEE7destroyEPNS_11__tree_nodeIS9_PvEE, symObjAddr: 0x438E0, symBinAddr: 0x44D90, symSize: 0x50 }
  - { offsetInCU: 0xDDD85, offset: 0xDDD85, size: 0x8, addend: 0x0, symName: __ZNSt3__14pairIKNS_12basic_stringIcNS_11char_traitsIcEENS_9allocatorIcEEEENS0_IiS6_EEEC2B8ue170006ILb1ELPv0EEERS7_RKS8_, symObjAddr: 0x43930, symBinAddr: 0x44DE0, symSize: 0x140 }
  - { offsetInCU: 0xDE7EF, offset: 0xDE7EF, size: 0x8, addend: 0x0, symName: __ZNSt3__16__treeINS_12__value_typeINS_12basic_stringIcNS_11char_traitsIcEENS_9allocatorIcEEEENS_4pairIiS7_EEEENS_19__map_value_compareIS7_SA_NS_4lessIS7_EELb1EEENS5_ISA_EEE30__emplace_hint_unique_key_argsIS7_JRKNS8_IKS7_S9_EEEEENS8_INS_15__tree_iteratorISA_PNS_11__tree_nodeISA_PvEElEEbEENS_21__tree_const_iteratorISA_SQ_lEERKT_DpOT0_, symObjAddr: 0x43A70, symBinAddr: 0x44F20, symSize: 0xC0 }
  - { offsetInCU: 0xDEBDF, offset: 0xDEBDF, size: 0x8, addend: 0x0, symName: __ZNSt3__16__treeINS_12__value_typeINS_12basic_stringIcNS_11char_traitsIcEENS_9allocatorIcEEEENS_4pairIiS7_EEEENS_19__map_value_compareIS7_SA_NS_4lessIS7_EELb1EEENS5_ISA_EEE7destroyEPNS_11__tree_nodeISA_PvEE, symObjAddr: 0x440A0, symBinAddr: 0x45550, symSize: 0x60 }
  - { offsetInCU: 0xDF052, offset: 0xDF052, size: 0x8, addend: 0x0, symName: __ZNSt3__14pairIKNS_12basic_stringIcNS_11char_traitsIcEENS_9allocatorIcEEEENS0_IiS6_EEED1Ev, symObjAddr: 0xD0, symBinAddr: 0x1580, symSize: 0x40 }
  - { offsetInCU: 0xDF3FD, offset: 0xDF3FD, size: 0x8, addend: 0x0, symName: __ZNSt3__112basic_stringIcNS_11char_traitsIcEENS_9allocatorIcEEEC1B8ue170006ILi0EEEPKc, symObjAddr: 0x50, symBinAddr: 0x1500, symSize: 0x80 }
  - { offsetInCU: 0xDF83D, offset: 0xDF83D, size: 0x8, addend: 0x0, symName: __ZNKSt3__112basic_stringIcNS_11char_traitsIcEENS_9allocatorIcEEE20__throw_length_errorB8ue170006Ev, symObjAddr: 0x2A0E0, symBinAddr: 0x2B590, symSize: 0x10 }
  - { offsetInCU: 0xDF867, offset: 0xDF867, size: 0x8, addend: 0x0, symName: __ZL24whisper_build_graph_convR15whisper_contextR13whisper_state, symObjAddr: 0x2A0F0, symBinAddr: 0x2B5A0, symSize: 0x170 }
  - { offsetInCU: 0xDF88C, offset: 0xDF88C, size: 0x8, addend: 0x0, symName: __ZNSt3__13mapINS_12basic_stringIcNS_11char_traitsIcEENS_9allocatorIcEEEENS_4pairIiS6_EENS_4lessIS6_EENS4_INS7_IKS6_S8_EEEEED1B8ue170006Ev, symObjAddr: 0x110, symBinAddr: 0x15C0, symSize: 0x10 }
  - { offsetInCU: 0xDF9BC, offset: 0xDF9BC, size: 0x8, addend: 0x0, symName: __ZNSt3__13mapI30whisper_alignment_heads_preset14whisper_aheadsNS_4lessIS1_EENS_9allocatorINS_4pairIKS1_S2_EEEEED1B8ue170006Ev, symObjAddr: 0x120, symBinAddr: 0x15D0, symSize: 0x10 }
  - { offsetInCU: 0xDFA78, offset: 0xDFA78, size: 0x8, addend: 0x0, symName: __ZNSt3__16__treeINS_12__value_typeI30whisper_alignment_heads_preset14whisper_aheadsEENS_19__map_value_compareIS2_S4_NS_4lessIS2_EELb1EEENS_9allocatorIS4_EEE7destroyEPNS_11__tree_nodeIS4_PvEE, symObjAddr: 0x44270, symBinAddr: 0x45720, symSize: 0x40 }
  - { offsetInCU: 0xE205D, offset: 0xE205D, size: 0x8, addend: 0x0, symName: __ZN13whisper_stateC2Ev, symObjAddr: 0x24640, symBinAddr: 0x25AF0, symSize: 0x730 }
  - { offsetInCU: 0xE25CB, offset: 0xE25CB, size: 0x8, addend: 0x0, symName: __ZL20whisper_backend_initRK22whisper_context_params, symObjAddr: 0x2030, symBinAddr: 0x34E0, symSize: 0x6A0 }
  - { offsetInCU: 0xE378B, offset: 0xE378B, size: 0x8, addend: 0x0, symName: __ZL21whisper_kv_cache_initR16whisper_kv_cacheP12ggml_backend9ggml_typexxi, symObjAddr: 0x29B0, symBinAddr: 0x3E60, symSize: 0x520 }
  - { offsetInCU: 0xE4341, offset: 0xE4341, size: 0x8, addend: 0x0, symName: __ZL20whisper_log_internal14ggml_log_levelPKcz, symObjAddr: 0x26D0, symBinAddr: 0x3B80, symSize: 0x160 }
  - { offsetInCU: 0xE440A, offset: 0xE440A, size: 0x8, addend: 0x0, symName: _whisper_free_state, symObjAddr: 0x2830, symBinAddr: 0x3CE0, symSize: 0x180 }
  - { offsetInCU: 0xE4692, offset: 0xE4692, size: 0x8, addend: 0x0, symName: __ZL28get_alignment_heads_by_layerRK22whisper_context_paramsiii, symObjAddr: 0x25200, symBinAddr: 0x266B0, symSize: 0x630 }
  - { offsetInCU: 0xE5521, offset: 0xE5521, size: 0x8, addend: 0x0, symName: __ZNSt3__16vectorIfNS_9allocatorIfEEE8__appendEm, symObjAddr: 0x442B0, symBinAddr: 0x45760, symSize: 0x240 }
  - { offsetInCU: 0xE5B08, offset: 0xE5B08, size: 0x8, addend: 0x0, symName: __ZNSt3__16__treeINS_12__value_typeIP24ggml_backend_buffer_typeP12ggml_contextEENS_19__map_value_compareIS3_S6_NS_4lessIS3_EELb1EEENS_9allocatorIS6_EEE7destroyEPNS_11__tree_nodeIS6_PvEE, symObjAddr: 0x444F0, symBinAddr: 0x459A0, symSize: 0x40 }
  - { offsetInCU: 0xE5B2F, offset: 0xE5B2F, size: 0x8, addend: 0x0, symName: __ZL19aheads_masks_nbytesR20whisper_aheads_masks, symObjAddr: 0x2ED0, symBinAddr: 0x4380, symSize: 0x70 }
  - { offsetInCU: 0xE5BB8, offset: 0xE5BB8, size: 0x8, addend: 0x0, symName: __ZL24whisper_sched_graph_initR13whisper_schedNSt3__16vectorIP12ggml_backendNS1_9allocatorIS4_EEEEONS1_8functionIFP11ggml_cgraphvEEE, symObjAddr: 0x2F40, symBinAddr: 0x43F0, symSize: 0x3F0 }
  - { offsetInCU: 0xE634A, offset: 0xE634A, size: 0x8, addend: 0x0, symName: __ZL18whisper_sched_sizeR13whisper_sched, symObjAddr: 0x33C0, symBinAddr: 0x4870, symSize: 0x70 }
  - { offsetInCU: 0xE63F3, offset: 0xE63F3, size: 0x8, addend: 0x0, symName: __ZNSt3__16vectorIP12ggml_backendNS_9allocatorIS2_EEEC1ERKS5_, symObjAddr: 0x3330, symBinAddr: 0x47E0, symSize: 0x90 }
  - { offsetInCU: 0xE68B3, offset: 0xE68B3, size: 0x8, addend: 0x0, symName: __ZNKSt3__16vectorIP11ggml_tensorNS_9allocatorIS2_EEE20__throw_length_errorB8ue170006Ev, symObjAddr: 0x258C0, symBinAddr: 0x26D70, symSize: 0x10 }
  - { offsetInCU: 0xE68DD, offset: 0xE68DD, size: 0x8, addend: 0x0, symName: __ZNSt3__125__throw_bad_function_callB8ue170006Ev, symObjAddr: 0x258D0, symBinAddr: 0x26D80, symSize: 0x40 }
  - { offsetInCU: 0xE68E8, offset: 0xE68E8, size: 0x8, addend: 0x0, symName: __ZNKSt3__16vectorIP12ggml_backendNS_9allocatorIS2_EEE20__throw_length_errorB8ue170006Ev, symObjAddr: 0x24EF0, symBinAddr: 0x263A0, symSize: 0x10 }
  - { offsetInCU: 0xE6912, offset: 0xE6912, size: 0x8, addend: 0x0, symName: __ZNSt3__120__throw_length_errorB8ue170006EPKc, symObjAddr: 0x24F00, symBinAddr: 0x263B0, symSize: 0x50 }
  - { offsetInCU: 0xE691D, offset: 0xE691D, size: 0x8, addend: 0x0, symName: __ZNKSt3__16vectorIfNS_9allocatorIfEEE20__throw_length_errorB8ue170006Ev, symObjAddr: 0x42A60, symBinAddr: 0x43F10, symSize: 0x10 }
  - { offsetInCU: 0xE6947, offset: 0xE6947, size: 0x8, addend: 0x0, symName: __ZNSt3__16__treeINS_12__value_typeI10asr_tensorPKcEENS_19__map_value_compareIS2_S5_NS_4lessIS2_EELb1EEENS_9allocatorIS5_EEE7destroyEPNS_11__tree_nodeIS5_PvEE, symObjAddr: 0x42A70, symBinAddr: 0x43F20, symSize: 0x40 }
  - { offsetInCU: 0xE6952, offset: 0xE6952, size: 0x8, addend: 0x0, symName: __ZNKSt3__16vectorI18whisper_token_dataNS_9allocatorIS1_EEE20__throw_length_errorB8ue170006Ev, symObjAddr: 0x3FA40, symBinAddr: 0x40EF0, symSize: 0x10 }
  - { offsetInCU: 0xE697C, offset: 0xE697C, size: 0x8, addend: 0x0, symName: __ZNSt3__121discrete_distributionIiE10param_type6__initEv, symObjAddr: 0x3FA50, symBinAddr: 0x40F00, symSize: 0x260 }
  - { offsetInCU: 0xE6987, offset: 0xE6987, size: 0x8, addend: 0x0, symName: __ZNKSt3__16vectorI12whisper_pairIdiENS_9allocatorIS2_EEE20__throw_length_errorB8ue170006Ev, symObjAddr: 0x40200, symBinAddr: 0x416B0, symSize: 0x10 }
  - { offsetInCU: 0xE69B1, offset: 0xE69B1, size: 0x8, addend: 0x0, symName: __ZNKSt3__16vectorIZ23whisper_full_with_stateE14beam_candidateNS_9allocatorIS1_EEE20__throw_length_errorB8ue170006Ev, symObjAddr: 0x40210, symBinAddr: 0x416C0, symSize: 0x10 }
  - { offsetInCU: 0xE6F1B, offset: 0xE6F1B, size: 0x8, addend: 0x0, symName: _whisper_vad_free, symObjAddr: 0x69B0, symBinAddr: 0x7E60, symSize: 0xC0 }
  - { offsetInCU: 0xE721C, offset: 0xE721C, size: 0x8, addend: 0x0, symName: __ZN13whisper_stateD2Ev, symObjAddr: 0x27EA0, symBinAddr: 0x29350, symSize: 0x3A0 }
  - { offsetInCU: 0xEA350, offset: 0xEA350, size: 0x8, addend: 0x0, symName: __ZNSt3__16__treeIiNS_4lessIiEENS_9allocatorIiEEE7destroyEPNS_11__tree_nodeIiPvEE, symObjAddr: 0x24EB0, symBinAddr: 0x26360, symSize: 0x40 }
  - { offsetInCU: 0xEA4B1, offset: 0xEA4B1, size: 0x8, addend: 0x0, symName: __ZNSt3__16vectorI15whisper_kv_cellNS_9allocatorIS1_EEE8__appendEm, symObjAddr: 0x24FD0, symBinAddr: 0x26480, symSize: 0x220 }
  - { offsetInCU: 0xEAE98, offset: 0xEAE98, size: 0x8, addend: 0x0, symName: __ZNKSt3__16vectorI15whisper_kv_cellNS_9allocatorIS1_EEE20__throw_length_errorB8ue170006Ev, symObjAddr: 0x251F0, symBinAddr: 0x266A0, symSize: 0x10 }
  - { offsetInCU: 0xEAED2, offset: 0xEAED2, size: 0x8, addend: 0x0, symName: __ZNKSt3__16vectorIhNS_9allocatorIhEEE20__throw_length_errorB8ue170006Ev, symObjAddr: 0x24FC0, symBinAddr: 0x26470, symSize: 0x10 }
  - { offsetInCU: 0xEAEFC, offset: 0xEAEFC, size: 0x8, addend: 0x0, symName: __ZNSt3__16vectorI15whisper_kv_cellNS_9allocatorIS1_EEE8__appendEm, symObjAddr: 0x24FD0, symBinAddr: 0x26480, symSize: 0x220 }
  - { offsetInCU: 0xEAFA6, offset: 0xEAFA6, size: 0x8, addend: 0x0, symName: _whisper_ctx_init_openvino_encoder_with_state, symObjAddr: 0x3430, symBinAddr: 0x48E0, symSize: 0x10 }
  - { offsetInCU: 0xEB00D, offset: 0xEB00D, size: 0x8, addend: 0x0, symName: _whisper_ctx_init_openvino_encoder, symObjAddr: 0x3440, symBinAddr: 0x48F0, symSize: 0x10 }
  - { offsetInCU: 0xEB065, offset: 0xEB065, size: 0x8, addend: 0x0, symName: _whisper_context_default_params, symObjAddr: 0x3450, symBinAddr: 0x4900, symSize: 0x30 }
  - { offsetInCU: 0xEB2A8, offset: 0xEB2A8, size: 0x8, addend: 0x0, symName: _whisper_init_from_file_with_params_no_state, symObjAddr: 0x3480, symBinAddr: 0x4930, symSize: 0x2A0 }
  - { offsetInCU: 0xEB670, offset: 0xEB670, size: 0x8, addend: 0x0, symName: __ZNSt3__113basic_filebufIcNS_11char_traitsIcEEEC2Ev, symObjAddr: 0x29FE0, symBinAddr: 0x2B490, symSize: 0x100 }
  - { offsetInCU: 0xEB762, offset: 0xEB762, size: 0x8, addend: 0x0, symName: _whisper_init_with_params_no_state, symObjAddr: 0x3720, symBinAddr: 0x4BD0, symSize: 0x290 }
  - { offsetInCU: 0xEBE0E, offset: 0xEBE0E, size: 0x8, addend: 0x0, symName: __ZNSt3__113basic_filebufIcNS_11char_traitsIcEEED2Ev, symObjAddr: 0x25B60, symBinAddr: 0x27010, symSize: 0xB0 }
  - { offsetInCU: 0xEBF2D, offset: 0xEBF2D, size: 0x8, addend: 0x0, symName: __ZNSt3__114basic_ifstreamIcNS_11char_traitsIcEEED1Ev, symObjAddr: 0x39B0, symBinAddr: 0x4E60, symSize: 0x60 }
  - { offsetInCU: 0xEC4F6, offset: 0xEC4F6, size: 0x8, addend: 0x0, symName: __ZL18whisper_model_loadP20whisper_model_loaderR15whisper_context, symObjAddr: 0x3AA0, symBinAddr: 0x4F50, symSize: 0x2900 }
  - { offsetInCU: 0xF1F09, offset: 0xF1F09, size: 0x8, addend: 0x0, symName: __ZN15whisper_contextD2Ev, symObjAddr: 0x27CD0, symBinAddr: 0x29180, symSize: 0xE0 }
  - { offsetInCU: 0xF41B3, offset: 0xF41B3, size: 0x8, addend: 0x0, symName: __ZNSt3__16__treeINS_12__value_typeINS_12basic_stringIcNS_11char_traitsIcEENS_9allocatorIcEEEEiEENS_19__map_value_compareIS7_S8_NS_4lessIS7_EELb1EEENS5_IS8_EEE25__emplace_unique_key_argsIS7_JRKNS_21piecewise_construct_tENS_5tupleIJRKS7_EEENSJ_IJEEEEEENS_4pairINS_15__tree_iteratorIS8_PNS_11__tree_nodeIS8_PvEElEEbEERKT_DpOT0_, symObjAddr: 0x27270, symBinAddr: 0x28720, symSize: 0x210 }
  - { offsetInCU: 0xF4C26, offset: 0xF4C26, size: 0x8, addend: 0x0, symName: _whisper_lang_str, symObjAddr: 0xA650, symBinAddr: 0xBB00, symSize: 0xA0 }
  - { offsetInCU: 0xF4E38, offset: 0xF4E38, size: 0x8, addend: 0x0, symName: __ZL14make_buft_listR22whisper_context_params, symObjAddr: 0xDD10, symBinAddr: 0xF1C0, symSize: 0x4B0 }
  - { offsetInCU: 0xF636A, offset: 0xF636A, size: 0x8, addend: 0x0, symName: __ZNSt3__16vectorI21whisper_layer_encoderNS_9allocatorIS1_EEE8__appendEm, symObjAddr: 0x275E0, symBinAddr: 0x28A90, symSize: 0x200 }
  - { offsetInCU: 0xF6972, offset: 0xF6972, size: 0x8, addend: 0x0, symName: __ZNSt3__16vectorI21whisper_layer_decoderNS_9allocatorIS1_EEE8__appendEm, symObjAddr: 0x277F0, symBinAddr: 0x28CA0, symSize: 0x1E0 }
  - { offsetInCU: 0xF6FA4, offset: 0xF6FA4, size: 0x8, addend: 0x0, symName: '__ZZL18whisper_model_loadP20whisper_model_loaderR15whisper_contextENK4$_26clE10asr_tensor10asr_systemP11ggml_tensori', symObjAddr: 0x26980, symBinAddr: 0x27E30, symSize: 0x8E0 }
  - { offsetInCU: 0xF8A0E, offset: 0xF8A0E, size: 0x8, addend: 0x0, symName: __ZNSt3__16__treeINS_12__value_typeINS_12basic_stringIcNS_11char_traitsIcEENS_9allocatorIcEEEEP11ggml_tensorEENS_19__map_value_compareIS7_SA_NS_4lessIS7_EELb1EEENS5_ISA_EEE4findIS7_EENS_15__tree_iteratorISA_PNS_11__tree_nodeISA_PvEElEERKT_, symObjAddr: 0x446D0, symBinAddr: 0x45B80, symSize: 0x120 }
  - { offsetInCU: 0xF8D1B, offset: 0xF8D1B, size: 0x8, addend: 0x0, symName: __ZNSt3__16__treeINS_12__value_typeINS_12basic_stringIcNS_11char_traitsIcEENS_9allocatorIcEEEEP11ggml_tensorEENS_19__map_value_compareIS7_SA_NS_4lessIS7_EELb1EEENS5_ISA_EEE25__emplace_unique_key_argsIS7_JRKNS_21piecewise_construct_tENS_5tupleIJOS7_EEENSL_IJEEEEEENS_4pairINS_15__tree_iteratorISA_PNS_11__tree_nodeISA_PvEElEEbEERKT_DpOT0_, symObjAddr: 0x44530, symBinAddr: 0x459E0, symSize: 0x190 }
  - { offsetInCU: 0xF9306, offset: 0xF9306, size: 0x8, addend: 0x0, symName: __ZNSt3__16vectorIcNS_9allocatorIcEEE6resizeEm, symObjAddr: 0xEAB0, symBinAddr: 0xFF60, symSize: 0x350 }
  - { offsetInCU: 0xF99DB, offset: 0xF99DB, size: 0x8, addend: 0x0, symName: __ZNSt3__16__treeINS_12__value_typeIP24ggml_backend_buffer_typeP12ggml_contextEENS_19__map_value_compareIS3_S6_NS_4lessIS3_EELb1EEENS_9allocatorIS6_EEE7destroyEPNS_11__tree_nodeIS6_PvEE, symObjAddr: 0x444F0, symBinAddr: 0x459A0, symSize: 0x40 }
  - { offsetInCU: 0xF9B3E, offset: 0xF9B3E, size: 0x8, addend: 0x0, symName: __ZNKSt3__16vectorIcNS_9allocatorIcEEE20__throw_length_errorB8ue170006Ev, symObjAddr: 0x27260, symBinAddr: 0x28710, symSize: 0x10 }
  - { offsetInCU: 0xF9B68, offset: 0xF9B68, size: 0x8, addend: 0x0, symName: __ZNSt3__16__treeINS_12__value_typeINS_12basic_stringIcNS_11char_traitsIcEENS_9allocatorIcEEEEiEENS_19__map_value_compareIS7_S8_NS_4lessIS7_EELb1EEENS5_IS8_EEE25__emplace_unique_key_argsIS7_JRKNS_21piecewise_construct_tENS_5tupleIJRKS7_EEENSJ_IJEEEEEENS_4pairINS_15__tree_iteratorIS8_PNS_11__tree_nodeIS8_PvEElEEbEERKT_DpOT0_, symObjAddr: 0x27270, symBinAddr: 0x28720, symSize: 0x210 }
  - { offsetInCU: 0xF9B73, offset: 0xF9B73, size: 0x8, addend: 0x0, symName: __ZNKSt3__16vectorIP19ggml_backend_bufferNS_9allocatorIS2_EEE20__throw_length_errorB8ue170006Ev, symObjAddr: 0x446C0, symBinAddr: 0x45B70, symSize: 0x10 }
  - { offsetInCU: 0xF9B9D, offset: 0xF9B9D, size: 0x8, addend: 0x0, symName: __ZNSt3__16__treeINS_12__value_typeINS_12basic_stringIcNS_11char_traitsIcEENS_9allocatorIcEEEEP11ggml_tensorEENS_19__map_value_compareIS7_SA_NS_4lessIS7_EELb1EEENS5_ISA_EEE4findIS7_EENS_15__tree_iteratorISA_PNS_11__tree_nodeISA_PvEElEERKT_, symObjAddr: 0x446D0, symBinAddr: 0x45B80, symSize: 0x120 }
  - { offsetInCU: 0xF9C79, offset: 0xF9C79, size: 0x8, addend: 0x0, symName: _whisper_init_from_file_with_params, symObjAddr: 0x63A0, symBinAddr: 0x7850, symSize: 0xD0 }
  - { offsetInCU: 0xF9EE4, offset: 0xF9EE4, size: 0x8, addend: 0x0, symName: _whisper_free, symObjAddr: 0x6470, symBinAddr: 0x7920, symSize: 0xA0 }
  - { offsetInCU: 0xFA129, offset: 0xFA129, size: 0x8, addend: 0x0, symName: _whisper_init_from_buffer_with_params, symObjAddr: 0x6510, symBinAddr: 0x79C0, symSize: 0x130 }
  - { offsetInCU: 0xFA3F8, offset: 0xFA3F8, size: 0x8, addend: 0x0, symName: _whisper_init_with_params, symObjAddr: 0x6640, symBinAddr: 0x7AF0, symSize: 0xD0 }
  - { offsetInCU: 0xFA67F, offset: 0xFA67F, size: 0x8, addend: 0x0, symName: _whisper_init_from_file, symObjAddr: 0x6710, symBinAddr: 0x7BC0, symSize: 0x60 }
  - { offsetInCU: 0xFA6E3, offset: 0xFA6E3, size: 0x8, addend: 0x0, symName: _whisper_init_from_buffer, symObjAddr: 0x6770, symBinAddr: 0x7C20, symSize: 0x60 }
  - { offsetInCU: 0xFA760, offset: 0xFA760, size: 0x8, addend: 0x0, symName: _whisper_init, symObjAddr: 0x67D0, symBinAddr: 0x7C80, symSize: 0x60 }
  - { offsetInCU: 0xFA7C4, offset: 0xFA7C4, size: 0x8, addend: 0x0, symName: _whisper_init_from_file_no_state, symObjAddr: 0x6830, symBinAddr: 0x7CE0, symSize: 0x60 }
  - { offsetInCU: 0xFA828, offset: 0xFA828, size: 0x8, addend: 0x0, symName: _whisper_init_from_buffer_no_state, symObjAddr: 0x6890, symBinAddr: 0x7D40, symSize: 0xC0 }
  - { offsetInCU: 0xFA8DA, offset: 0xFA8DA, size: 0x8, addend: 0x0, symName: _whisper_init_no_state, symObjAddr: 0x6950, symBinAddr: 0x7E00, symSize: 0x60 }
  - { offsetInCU: 0xFA961, offset: 0xFA961, size: 0x8, addend: 0x0, symName: __ZN19whisper_vad_contextD2Ev, symObjAddr: 0x39420, symBinAddr: 0x3A8D0, symSize: 0x110 }
  - { offsetInCU: 0xFB5BB, offset: 0xFB5BB, size: 0x8, addend: 0x0, symName: _whisper_free_context_params, symObjAddr: 0x6A70, symBinAddr: 0x7F20, symSize: 0x20 }
  - { offsetInCU: 0xFB5E2, offset: 0xFB5E2, size: 0x8, addend: 0x0, symName: _whisper_free_params, symObjAddr: 0x6A90, symBinAddr: 0x7F40, symSize: 0x20 }
  - { offsetInCU: 0xFBD0B, offset: 0xFBD0B, size: 0x8, addend: 0x0, symName: _whisper_pcm_to_mel_with_state, symObjAddr: 0x6AB0, symBinAddr: 0x7F60, symSize: 0xA50 }
  - { offsetInCU: 0xFCCA6, offset: 0xFCCA6, size: 0x8, addend: 0x0, symName: __ZNSt3__16threadC2IRFviPKfRKNS_6vectorIfNS_9allocatorIfEEEEiiiiRK15whisper_filtersR11whisper_melEJiRS3_NS_17reference_wrapperIS8_EExRKiSL_SL_NSI_ISB_EENSI_ISD_EEEvEEOT_DpOT0_, symObjAddr: 0x29D90, symBinAddr: 0x2B240, symSize: 0x120 }
  - { offsetInCU: 0xFD486, offset: 0xFD486, size: 0x8, addend: 0x0, symName: __ZL33log_mel_spectrogram_worker_threadiPKfRKNSt3__16vectorIfNS1_9allocatorIfEEEEiiiiRK15whisper_filtersR11whisper_mel, symObjAddr: 0x28240, symBinAddr: 0x296F0, symSize: 0xCC0 }
  - { offsetInCU: 0xFDF9F, offset: 0xFDF9F, size: 0x8, addend: 0x0, symName: __ZNKSt3__16vectorINS_6threadENS_9allocatorIS1_EEE20__throw_length_errorB8ue170006Ev, symObjAddr: 0x447F0, symBinAddr: 0x45CA0, symSize: 0x10 }
  - { offsetInCU: 0xFDFC9, offset: 0xFDFC9, size: 0x8, addend: 0x0, symName: __ZNKSt3__16vectorIiNS_9allocatorIiEEE20__throw_length_errorB8ue170006Ev, symObjAddr: 0x44800, symBinAddr: 0x45CB0, symSize: 0x10 }
  - { offsetInCU: 0xFDFD4, offset: 0xFDFD4, size: 0x8, addend: 0x0, symName: _whisper_pcm_to_mel, symObjAddr: 0x7500, symBinAddr: 0x89B0, symSize: 0x20 }
  - { offsetInCU: 0xFE063, offset: 0xFE063, size: 0x8, addend: 0x0, symName: _whisper_set_mel_with_state, symObjAddr: 0x7520, symBinAddr: 0x89D0, symSize: 0xC0 }
  - { offsetInCU: 0xFE1BE, offset: 0xFE1BE, size: 0x8, addend: 0x0, symName: _whisper_set_mel, symObjAddr: 0x75E0, symBinAddr: 0x8A90, symSize: 0xC0 }
  - { offsetInCU: 0xFE328, offset: 0xFE328, size: 0x8, addend: 0x0, symName: _whisper_encode_with_state, symObjAddr: 0x76A0, symBinAddr: 0x8B50, symSize: 0x40 }
  - { offsetInCU: 0xFE3B5, offset: 0xFE3B5, size: 0x8, addend: 0x0, symName: __ZL23whisper_encode_internalR15whisper_contextR13whisper_stateiiPFbPvES3_, symObjAddr: 0x76E0, symBinAddr: 0x8B90, symSize: 0x8A0 }
  - { offsetInCU: 0xFE8AD, offset: 0xFE8AD, size: 0x8, addend: 0x0, symName: __ZL24whisper_build_graph_convR15whisper_contextR13whisper_state, symObjAddr: 0x2A0F0, symBinAddr: 0x2B5A0, symSize: 0x170 }
  - { offsetInCU: 0xFEB51, offset: 0xFEB51, size: 0x8, addend: 0x0, symName: __ZL25ggml_graph_compute_helperP18ggml_backend_schedP11ggml_cgraphib, symObjAddr: 0xF810, symBinAddr: 0x10CC0, symSize: 0xE0 }
  - { offsetInCU: 0xFED16, offset: 0xFED16, size: 0x8, addend: 0x0, symName: __ZL25whisper_build_graph_crossR15whisper_contextR13whisper_state, symObjAddr: 0x2A8C0, symBinAddr: 0x2BD70, symSize: 0x360 }
  - { offsetInCU: 0xFF183, offset: 0xFF183, size: 0x8, addend: 0x0, symName: _whisper_encode, symObjAddr: 0x7F80, symBinAddr: 0x9430, symSize: 0x50 }
  - { offsetInCU: 0xFF27B, offset: 0xFF27B, size: 0x8, addend: 0x0, symName: _whisper_decode_with_state, symObjAddr: 0x7FD0, symBinAddr: 0x9480, symSize: 0x160 }
  - { offsetInCU: 0xFF3AF, offset: 0xFF3AF, size: 0x8, addend: 0x0, symName: __ZL23whisper_kv_cache_seq_rmR16whisper_kv_cacheiii, symObjAddr: 0x8130, symBinAddr: 0x95E0, symSize: 0x220 }
  - { offsetInCU: 0xFF95F, offset: 0xFF95F, size: 0x8, addend: 0x0, symName: __ZL23whisper_decode_internalR15whisper_contextR13whisper_stateRK13whisper_batchibPFbPvES6_, symObjAddr: 0x8350, symBinAddr: 0x9800, symSize: 0x8E0 }
  - { offsetInCU: 0x100EDC, offset: 0x100EDC, size: 0x8, addend: 0x0, symName: __ZL27whisper_build_graph_decoderR15whisper_contextR13whisper_stateRK13whisper_batchbb, symObjAddr: 0x2AFD0, symBinAddr: 0x2C480, symSize: 0xE30 }
  - { offsetInCU: 0x10224F, offset: 0x10224F, size: 0x8, addend: 0x0, symName: _whisper_decode, symObjAddr: 0x8C30, symBinAddr: 0xA0E0, symSize: 0x50 }
  - { offsetInCU: 0x103A0E, offset: 0x103A0E, size: 0x8, addend: 0x0, symName: _whisper_tokenize, symObjAddr: 0x8C80, symBinAddr: 0xA130, symSize: 0x14B0 }
  - { offsetInCU: 0x1085B7, offset: 0x1085B7, size: 0x8, addend: 0x0, symName: __ZNSt3__111basic_regexIcNS_12regex_traitsIcEEEC2B8ue170006INS_11char_traitsIcEENS_9allocatorIcEEEERKNS_12basic_stringIcT_T0_EENS_15regex_constants18syntax_option_typeE, symObjAddr: 0x2BE50, symBinAddr: 0x2D300, symSize: 0xC0 }
  - { offsetInCU: 0x1087CF, offset: 0x1087CF, size: 0x8, addend: 0x0, symName: __ZNKSt3__111basic_regexIcNS_12regex_traitsIcEEE8__searchINS_9allocatorINS_9sub_matchIPKcEEEEEEbS8_S8_RNS_13match_resultsIS8_T_EENS_15regex_constants15match_flag_typeE, symObjAddr: 0x36080, symBinAddr: 0x37530, symSize: 0x2D0 }
  - { offsetInCU: 0x108CA0, offset: 0x108CA0, size: 0x8, addend: 0x0, symName: __ZNSt3__113match_resultsINS_11__wrap_iterIPKcEENS_9allocatorINS_9sub_matchIS4_EEEEE8__assignB8ue170006IS3_NS5_INS6_IS3_EEEEEEvS4_S4_RKNS0_IT_T0_EEb, symObjAddr: 0x36350, symBinAddr: 0x37800, symSize: 0x1C0 }
  - { offsetInCU: 0x109493, offset: 0x109493, size: 0x8, addend: 0x0, symName: __ZNKSt3__16vectorINS_12basic_stringIcNS_11char_traitsIcEENS_9allocatorIcEEEENS4_IS6_EEE20__throw_length_errorB8ue170006Ev, symObjAddr: 0x33DD0, symBinAddr: 0x35280, symSize: 0x10 }
  - { offsetInCU: 0x1094BD, offset: 0x1094BD, size: 0x8, addend: 0x0, symName: __ZNSt3__119__throw_regex_errorB8ue170006ILNS_15regex_constants10error_typeE2EEEvv, symObjAddr: 0x33DE0, symBinAddr: 0x35290, symSize: 0x50 }
  - { offsetInCU: 0x1094C8, offset: 0x1094C8, size: 0x8, addend: 0x0, symName: __ZNKSt3__112basic_stringIcNS_11char_traitsIcEENS_9allocatorIcEEE20__throw_out_of_rangeB8ue170006Ev, symObjAddr: 0x390F0, symBinAddr: 0x3A5A0, symSize: 0x10 }
  - { offsetInCU: 0x1094F2, offset: 0x1094F2, size: 0x8, addend: 0x0, symName: __ZNKSt3__16__treeINS_12__value_typeINS_12basic_stringIcNS_11char_traitsIcEENS_9allocatorIcEEEEiEENS_19__map_value_compareIS7_S8_NS_4lessIS7_EELb1EEENS5_IS8_EEE4findIS7_EENS_21__tree_const_iteratorIS8_PNS_11__tree_nodeIS8_PvEElEERKT_, symObjAddr: 0x39100, symBinAddr: 0x3A5B0, symSize: 0x120 }
  - { offsetInCU: 0x1094FD, offset: 0x1094FD, size: 0x8, addend: 0x0, symName: __ZNKSt3__16vectorIiNS_9allocatorIiEEE20__throw_length_errorB8ue170006Ev, symObjAddr: 0x44800, symBinAddr: 0x45CB0, symSize: 0x10 }
  - { offsetInCU: 0x109527, offset: 0x109527, size: 0x8, addend: 0x0, symName: '__ZNSt3__110__function6__funcIZ18whisper_init_stateE3$_0NS_9allocatorIS2_EEFP11ggml_cgraphvEED1Ev', symObjAddr: 0x44810, symBinAddr: 0x45CC0, symSize: 0x10 }
  - { offsetInCU: 0x109532, offset: 0x109532, size: 0x8, addend: 0x0, symName: __ZNSt3__111basic_regexIcNS_12regex_traitsIcEEED1Ev, symObjAddr: 0x2BE00, symBinAddr: 0x2D2B0, symSize: 0x50 }
  - { offsetInCU: 0x10966B, offset: 0x10966B, size: 0x8, addend: 0x0, symName: _whisper_token_count, symObjAddr: 0xA130, symBinAddr: 0xB5E0, symSize: 0x20 }
  - { offsetInCU: 0x10974A, offset: 0x10974A, size: 0x8, addend: 0x0, symName: _whisper_lang_max_id, symObjAddr: 0xA150, symBinAddr: 0xB600, symSize: 0x60 }
  - { offsetInCU: 0x109A15, offset: 0x109A15, size: 0x8, addend: 0x0, symName: _whisper_lang_id, symObjAddr: 0xA1B0, symBinAddr: 0xB660, symSize: 0x390 }
  - { offsetInCU: 0x10AB9B, offset: 0x10AB9B, size: 0x8, addend: 0x0, symName: __ZNKSt3__13mapINS_12basic_stringIcNS_11char_traitsIcEENS_9allocatorIcEEEENS_4pairIiS6_EENS_4lessIS6_EENS4_INS7_IKS6_S8_EEEEE2atERSB_, symObjAddr: 0xA540, symBinAddr: 0xB9F0, symSize: 0x110 }
  - { offsetInCU: 0x10AEE7, offset: 0x10AEE7, size: 0x8, addend: 0x0, symName: _whisper_lang_str_full, symObjAddr: 0xA6F0, symBinAddr: 0xBBA0, symSize: 0xA0 }
  - { offsetInCU: 0x10B61B, offset: 0x10B61B, size: 0x8, addend: 0x0, symName: _whisper_lang_auto_detect_with_state, symObjAddr: 0xA790, symBinAddr: 0xBC40, symSize: 0x480 }
  - { offsetInCU: 0x10C8EC, offset: 0x10C8EC, size: 0x8, addend: 0x0, symName: _whisper_token_sot, symObjAddr: 0xAC10, symBinAddr: 0xC0C0, symSize: 0x10 }
  - { offsetInCU: 0x10C909, offset: 0x10C909, size: 0x8, addend: 0x0, symName: _whisper_token_lang, symObjAddr: 0xAC20, symBinAddr: 0xC0D0, symSize: 0x10 }
  - { offsetInCU: 0x10C94D, offset: 0x10C94D, size: 0x8, addend: 0x0, symName: _whisper_lang_auto_detect, symObjAddr: 0xAC30, symBinAddr: 0xC0E0, symSize: 0x20 }
  - { offsetInCU: 0x10C9DA, offset: 0x10C9DA, size: 0x8, addend: 0x0, symName: _whisper_model_n_vocab, symObjAddr: 0xAC50, symBinAddr: 0xC100, symSize: 0x10 }
  - { offsetInCU: 0x10CA05, offset: 0x10CA05, size: 0x8, addend: 0x0, symName: _whisper_model_n_audio_ctx, symObjAddr: 0xAC60, symBinAddr: 0xC110, symSize: 0x10 }
  - { offsetInCU: 0x10CA30, offset: 0x10CA30, size: 0x8, addend: 0x0, symName: _whisper_model_n_audio_state, symObjAddr: 0xAC70, symBinAddr: 0xC120, symSize: 0x10 }
  - { offsetInCU: 0x10CA5B, offset: 0x10CA5B, size: 0x8, addend: 0x0, symName: _whisper_model_n_audio_head, symObjAddr: 0xAC80, symBinAddr: 0xC130, symSize: 0x10 }
  - { offsetInCU: 0x10CA86, offset: 0x10CA86, size: 0x8, addend: 0x0, symName: _whisper_model_n_audio_layer, symObjAddr: 0xAC90, symBinAddr: 0xC140, symSize: 0x10 }
  - { offsetInCU: 0x10CAB1, offset: 0x10CAB1, size: 0x8, addend: 0x0, symName: _whisper_model_n_text_ctx, symObjAddr: 0xACA0, symBinAddr: 0xC150, symSize: 0x10 }
  - { offsetInCU: 0x10CADC, offset: 0x10CADC, size: 0x8, addend: 0x0, symName: _whisper_model_n_text_state, symObjAddr: 0xACB0, symBinAddr: 0xC160, symSize: 0x10 }
  - { offsetInCU: 0x10CB07, offset: 0x10CB07, size: 0x8, addend: 0x0, symName: _whisper_model_n_text_head, symObjAddr: 0xACC0, symBinAddr: 0xC170, symSize: 0x10 }
  - { offsetInCU: 0x10CB32, offset: 0x10CB32, size: 0x8, addend: 0x0, symName: _whisper_model_n_text_layer, symObjAddr: 0xACD0, symBinAddr: 0xC180, symSize: 0x10 }
  - { offsetInCU: 0x10CB5D, offset: 0x10CB5D, size: 0x8, addend: 0x0, symName: _whisper_model_n_mels, symObjAddr: 0xACE0, symBinAddr: 0xC190, symSize: 0x10 }
  - { offsetInCU: 0x10CB88, offset: 0x10CB88, size: 0x8, addend: 0x0, symName: _whisper_model_ftype, symObjAddr: 0xACF0, symBinAddr: 0xC1A0, symSize: 0x10 }
  - { offsetInCU: 0x10CBB3, offset: 0x10CBB3, size: 0x8, addend: 0x0, symName: _whisper_model_type, symObjAddr: 0xAD00, symBinAddr: 0xC1B0, symSize: 0x10 }
  - { offsetInCU: 0x10CBDE, offset: 0x10CBDE, size: 0x8, addend: 0x0, symName: _whisper_model_type_readable, symObjAddr: 0xAD10, symBinAddr: 0xC1C0, symSize: 0x30 }
  - { offsetInCU: 0x10CC09, offset: 0x10CC09, size: 0x8, addend: 0x0, symName: _whisper_n_len_from_state, symObjAddr: 0xAD40, symBinAddr: 0xC1F0, symSize: 0x10 }
  - { offsetInCU: 0x10CC26, offset: 0x10CC26, size: 0x8, addend: 0x0, symName: _whisper_n_len, symObjAddr: 0xAD50, symBinAddr: 0xC200, symSize: 0x20 }
  - { offsetInCU: 0x10CC51, offset: 0x10CC51, size: 0x8, addend: 0x0, symName: _whisper_n_vocab, symObjAddr: 0xAD70, symBinAddr: 0xC220, symSize: 0x10 }
  - { offsetInCU: 0x10CC7C, offset: 0x10CC7C, size: 0x8, addend: 0x0, symName: _whisper_n_text_ctx, symObjAddr: 0xAD80, symBinAddr: 0xC230, symSize: 0x10 }
  - { offsetInCU: 0x10CC99, offset: 0x10CC99, size: 0x8, addend: 0x0, symName: _whisper_n_audio_ctx, symObjAddr: 0xAD90, symBinAddr: 0xC240, symSize: 0x10 }
  - { offsetInCU: 0x10CCB6, offset: 0x10CCB6, size: 0x8, addend: 0x0, symName: _whisper_is_multilingual, symObjAddr: 0xADA0, symBinAddr: 0xC250, symSize: 0x20 }
  - { offsetInCU: 0x10CCF5, offset: 0x10CCF5, size: 0x8, addend: 0x0, symName: _whisper_get_logits, symObjAddr: 0xADC0, symBinAddr: 0xC270, symSize: 0x20 }
  - { offsetInCU: 0x10CD43, offset: 0x10CD43, size: 0x8, addend: 0x0, symName: _whisper_get_logits_from_state, symObjAddr: 0xADE0, symBinAddr: 0xC290, symSize: 0x10 }
  - { offsetInCU: 0x10CDD5, offset: 0x10CDD5, size: 0x8, addend: 0x0, symName: _whisper_token_to_str, symObjAddr: 0xADF0, symBinAddr: 0xC2A0, symSize: 0x60 }
  - { offsetInCU: 0x10CF88, offset: 0x10CF88, size: 0x8, addend: 0x0, symName: _whisper_token_eot, symObjAddr: 0xAE50, symBinAddr: 0xC300, symSize: 0x10 }
  - { offsetInCU: 0x10CFA5, offset: 0x10CFA5, size: 0x8, addend: 0x0, symName: _whisper_token_solm, symObjAddr: 0xAE60, symBinAddr: 0xC310, symSize: 0x10 }
  - { offsetInCU: 0x10CFD0, offset: 0x10CFD0, size: 0x8, addend: 0x0, symName: _whisper_token_prev, symObjAddr: 0xAE70, symBinAddr: 0xC320, symSize: 0x10 }
  - { offsetInCU: 0x10CFED, offset: 0x10CFED, size: 0x8, addend: 0x0, symName: _whisper_token_nosp, symObjAddr: 0xAE80, symBinAddr: 0xC330, symSize: 0x10 }
  - { offsetInCU: 0x10D00A, offset: 0x10D00A, size: 0x8, addend: 0x0, symName: _whisper_token_not, symObjAddr: 0xAE90, symBinAddr: 0xC340, symSize: 0x10 }
  - { offsetInCU: 0x10D027, offset: 0x10D027, size: 0x8, addend: 0x0, symName: _whisper_token_beg, symObjAddr: 0xAEA0, symBinAddr: 0xC350, symSize: 0x10 }
  - { offsetInCU: 0x10D044, offset: 0x10D044, size: 0x8, addend: 0x0, symName: _whisper_token_translate, symObjAddr: 0xAEB0, symBinAddr: 0xC360, symSize: 0x10 }
  - { offsetInCU: 0x10D061, offset: 0x10D061, size: 0x8, addend: 0x0, symName: _whisper_token_transcribe, symObjAddr: 0xAEC0, symBinAddr: 0xC370, symSize: 0x10 }
  - { offsetInCU: 0x10D07E, offset: 0x10D07E, size: 0x8, addend: 0x0, symName: _whisper_get_timings, symObjAddr: 0xAED0, symBinAddr: 0xC380, symSize: 0xE0 }
  - { offsetInCU: 0x10D181, offset: 0x10D181, size: 0x8, addend: 0x0, symName: _whisper_print_timings, symObjAddr: 0xAFB0, symBinAddr: 0xC460, symSize: 0x2C0 }
  - { offsetInCU: 0x10D528, offset: 0x10D528, size: 0x8, addend: 0x0, symName: _whisper_reset_timings, symObjAddr: 0xB270, symBinAddr: 0xC720, symSize: 0x40 }
  - { offsetInCU: 0x10D600, offset: 0x10D600, size: 0x8, addend: 0x0, symName: _whisper_vad_default_context_params, symObjAddr: 0xB690, symBinAddr: 0xCB40, symSize: 0x10 }
  - { offsetInCU: 0x10D62D, offset: 0x10D62D, size: 0x8, addend: 0x0, symName: _whisper_vad_default_params, symObjAddr: 0xB6A0, symBinAddr: 0xCB50, symSize: 0x30 }
  - { offsetInCU: 0x10D64B, offset: 0x10D64B, size: 0x8, addend: 0x0, symName: _whisper_vad_init_from_file_with_params, symObjAddr: 0xB6D0, symBinAddr: 0xCB80, symSize: 0x290 }
  - { offsetInCU: 0x10DA27, offset: 0x10DA27, size: 0x8, addend: 0x0, symName: _whisper_vad_init_with_params, symObjAddr: 0xB960, symBinAddr: 0xCE10, symSize: 0x23B0 }
  - { offsetInCU: 0x114B33, offset: 0x114B33, size: 0x8, addend: 0x0, symName: '__ZZ28whisper_vad_init_with_paramsENK4$_15clE10vad_tensorP11ggml_tensor', symObjAddr: 0xE1C0, symBinAddr: 0xF670, symSize: 0x8F0 }
  - { offsetInCU: 0x116F73, offset: 0x116F73, size: 0x8, addend: 0x0, symName: __ZNKSt3__16vectorINS_4pairIP19ggml_backend_deviceP24ggml_backend_buffer_typeEENS_9allocatorIS6_EEE20__throw_length_errorB8ue170006Ev, symObjAddr: 0x27CB0, symBinAddr: 0x29160, symSize: 0x10 }
  - { offsetInCU: 0x116F9D, offset: 0x116F9D, size: 0x8, addend: 0x0, symName: __ZNKSt3__16vectorIP12ggml_contextNS_9allocatorIS2_EEE20__throw_length_errorB8ue170006Ev, symObjAddr: 0x27CC0, symBinAddr: 0x29170, symSize: 0x10 }
  - { offsetInCU: 0x1181D7, offset: 0x1181D7, size: 0x8, addend: 0x0, symName: __ZL16ggml_mul_mat_padP12ggml_contextP11ggml_tensorS2_i, symObjAddr: 0x24460, symBinAddr: 0x25910, symSize: 0x180 }
  - { offsetInCU: 0x1183B6, offset: 0x1183B6, size: 0x8, addend: 0x0, symName: __ZNKSt3__13mapI10vad_tensorPKcNS_4lessIS1_EENS_9allocatorINS_4pairIKS1_S3_EEEEE2atERS8_, symObjAddr: 0x392F0, symBinAddr: 0x3A7A0, symSize: 0x50 }
  - { offsetInCU: 0x1184E7, offset: 0x1184E7, size: 0x8, addend: 0x0, symName: __ZL6formatPKcz, symObjAddr: 0x279E0, symBinAddr: 0x28E90, symSize: 0x200 }
  - { offsetInCU: 0x118D4F, offset: 0x118D4F, size: 0x8, addend: 0x0, symName: __ZNKSt3__16vectorIP12ggml_contextNS_9allocatorIS2_EEE20__throw_length_errorB8ue170006Ev, symObjAddr: 0x27CC0, symBinAddr: 0x29170, symSize: 0x10 }
  - { offsetInCU: 0x118D79, offset: 0x118D79, size: 0x8, addend: 0x0, symName: __ZN15whisper_contextD2Ev, symObjAddr: 0x27CD0, symBinAddr: 0x29180, symSize: 0xE0 }
  - { offsetInCU: 0x118D84, offset: 0x118D84, size: 0x8, addend: 0x0, symName: __ZNSt3__110unique_ptrI12ggml_context20ggml_context_deleterED1B8ue170006Ev, symObjAddr: 0x27C80, symBinAddr: 0x29130, symSize: 0x30 }
  - { offsetInCU: 0x119088, offset: 0x119088, size: 0x8, addend: 0x0, symName: _whisper_vad_detect_speech, symObjAddr: 0xEE00, symBinAddr: 0x102B0, symSize: 0x500 }
  - { offsetInCU: 0x11A2AB, offset: 0x11A2AB, size: 0x8, addend: 0x0, symName: __ZL23whisper_vad_build_graphR19whisper_vad_context, symObjAddr: 0xF300, symBinAddr: 0x107B0, symSize: 0x510 }
  - { offsetInCU: 0x11B012, offset: 0x11B012, size: 0x8, addend: 0x0, symName: _whisper_vad_segments_n_segments, symObjAddr: 0xF8F0, symBinAddr: 0x10DA0, symSize: 0x20 }
  - { offsetInCU: 0x11B086, offset: 0x11B086, size: 0x8, addend: 0x0, symName: _whisper_vad_segments_get_segment_t0, symObjAddr: 0xF910, symBinAddr: 0x10DC0, symSize: 0x20 }
  - { offsetInCU: 0x11B0E7, offset: 0x11B0E7, size: 0x8, addend: 0x0, symName: _whisper_vad_segments_get_segment_t1, symObjAddr: 0xF930, symBinAddr: 0x10DE0, symSize: 0x20 }
  - { offsetInCU: 0x11B148, offset: 0x11B148, size: 0x8, addend: 0x0, symName: _whisper_vad_n_probs, symObjAddr: 0xF950, symBinAddr: 0x10E00, symSize: 0x20 }
  - { offsetInCU: 0x11B187, offset: 0x11B187, size: 0x8, addend: 0x0, symName: _whisper_vad_probs, symObjAddr: 0xF970, symBinAddr: 0x10E20, symSize: 0x10 }
  - { offsetInCU: 0x11B95A, offset: 0x11B95A, size: 0x8, addend: 0x0, symName: __ZNSt3__16vectorI19whisper_vad_segmentNS_9allocatorIS1_EEE8__appendEm, symObjAddr: 0x460D0, symBinAddr: 0x47580, symSize: 0x150 }
  - { offsetInCU: 0x11BF66, offset: 0x11BF66, size: 0x8, addend: 0x0, symName: __ZNKSt3__16vectorIZ31whisper_vad_segments_from_probsE16speech_segment_tNS_9allocatorIS1_EEE20__throw_length_errorB8ue170006Ev, symObjAddr: 0x460C0, symBinAddr: 0x47570, symSize: 0x10 }
  - { offsetInCU: 0x11BF8C, offset: 0x11BF8C, size: 0x8, addend: 0x0, symName: __ZNSt3__16vectorI19whisper_vad_segmentNS_9allocatorIS1_EEE8__appendEm, symObjAddr: 0x460D0, symBinAddr: 0x47580, symSize: 0x150 }
  - { offsetInCU: 0x11BF97, offset: 0x11BF97, size: 0x8, addend: 0x0, symName: _whisper_vad_segments_from_samples, symObjAddr: 0x10BE0, symBinAddr: 0x12090, symSize: 0x80 }
  - { offsetInCU: 0x11C0A7, offset: 0x11C0A7, size: 0x8, addend: 0x0, symName: _whisper_vad_free_segments, symObjAddr: 0x10C60, symBinAddr: 0x12110, symSize: 0x30 }
  - { offsetInCU: 0x11C276, offset: 0x11C276, size: 0x8, addend: 0x0, symName: _whisper_context_default_params_by_ref, symObjAddr: 0x10C90, symBinAddr: 0x12140, symSize: 0x40 }
  - { offsetInCU: 0x11C2DC, offset: 0x11C2DC, size: 0x8, addend: 0x0, symName: _whisper_full_default_params_by_ref, symObjAddr: 0x10CD0, symBinAddr: 0x12180, symSize: 0x220 }
  - { offsetInCU: 0x11C384, offset: 0x11C384, size: 0x8, addend: 0x0, symName: _whisper_full_default_params, symObjAddr: 0x10EF0, symBinAddr: 0x123A0, symSize: 0x1B0 }
  - { offsetInCU: 0x11C3D0, offset: 0x11C3D0, size: 0x8, addend: 0x0, symName: __ZNSt3__16vectorINS_12basic_stringIcNS_11char_traitsIcEENS_9allocatorIcEEEENS4_IS6_EEED1B8ue170006Ev, symObjAddr: 0x110A0, symBinAddr: 0x12550, symSize: 0x70 }
  - { offsetInCU: 0x1229B1, offset: 0x1229B1, size: 0x8, addend: 0x0, symName: __ZNSt3__16vectorIiNS_9allocatorIiEEE8__appendEm, symObjAddr: 0x46630, symBinAddr: 0x47AE0, symSize: 0x240 }
  - { offsetInCU: 0x122FA3, offset: 0x122FA3, size: 0x8, addend: 0x0, symName: __ZNSt3__16vectorIiNS_9allocatorIiEEE9push_backB8ue170006EOi, symObjAddr: 0x1AE70, symBinAddr: 0x1C320, symSize: 0x200 }
  - { offsetInCU: 0x123571, offset: 0x123571, size: 0x8, addend: 0x0, symName: __ZL29whisper_grammar_advance_stackRKNSt3__16vectorINS0_I23whisper_grammar_elementNS_9allocatorIS1_EEEENS2_IS4_EEEERKNS0_IPKS1_NS2_ISA_EEEERNS0_ISC_NS2_ISC_EEEE, symObjAddr: 0x39530, symBinAddr: 0x3A9E0, symSize: 0x640 }
  - { offsetInCU: 0x124E26, offset: 0x124E26, size: 0x8, addend: 0x0, symName: __ZNSt3__16vectorIiNS_9allocatorIiEEE18__insert_with_sizeB8ue170006INS_11__wrap_iterIPiEES7_EES7_NS5_IPKiEET_T0_l, symObjAddr: 0x46A10, symBinAddr: 0x47EC0, symSize: 0x4E0 }
  - { offsetInCU: 0x125C1D, offset: 0x125C1D, size: 0x8, addend: 0x0, symName: __ZL22whisper_process_logitsR15whisper_contextR13whisper_stateR15whisper_decoder19whisper_full_paramsf, symObjAddr: 0x1B1A0, symBinAddr: 0x1C650, symSize: 0x1EA0 }
  - { offsetInCU: 0x12A9AF, offset: 0x12A9AF, size: 0x8, addend: 0x0, symName: '__ZZ23whisper_full_with_stateENK4$_16clEv', symObjAddr: 0x1D040, symBinAddr: 0x1E4F0, symSize: 0x2100 }
  - { offsetInCU: 0x12F880, offset: 0x12F880, size: 0x8, addend: 0x0, symName: __ZNSt3__16vectorINS0_I23whisper_grammar_elementNS_9allocatorIS1_EEEENS2_IS4_EEE18__assign_with_sizeB8ue170006IPS4_S8_EEvT_T0_l, symObjAddr: 0x408A0, symBinAddr: 0x41D50, symSize: 0x270 }
  - { offsetInCU: 0x130579, offset: 0x130579, size: 0x8, addend: 0x0, symName: __ZNSt3__16vectorINS0_IPK23whisper_grammar_elementNS_9allocatorIS3_EEEENS4_IS6_EEE18__assign_with_sizeB8ue170006IPS6_SA_EEvT_T0_l, symObjAddr: 0x40C60, symBinAddr: 0x42110, symSize: 0x270 }
  - { offsetInCU: 0x131272, offset: 0x131272, size: 0x8, addend: 0x0, symName: __ZNSt3__16vectorI18whisper_token_dataNS_9allocatorIS1_EEE8__appendEm, symObjAddr: 0x46230, symBinAddr: 0x476E0, symSize: 0x1D0 }
  - { offsetInCU: 0x131870, offset: 0x131870, size: 0x8, addend: 0x0, symName: __ZNSt3__16__treeINS_12__value_typeIiiEENS_19__map_value_compareIiS2_NS_4lessIiEELb1EEENS_9allocatorIS2_EEE7destroyEPNS_11__tree_nodeIS2_PvEE, symObjAddr: 0x41020, symBinAddr: 0x424D0, symSize: 0x40 }
  - { offsetInCU: 0x1319D3, offset: 0x1319D3, size: 0x8, addend: 0x0, symName: __ZL12to_timestampxb, symObjAddr: 0x1F1B0, symBinAddr: 0x20660, symSize: 0x160 }
  - { offsetInCU: 0x131E9F, offset: 0x131E9F, size: 0x8, addend: 0x0, symName: __ZNSt3__16vectorI15whisper_segmentNS_9allocatorIS1_EEE21__push_back_slow_pathIS1_EEvOT_, symObjAddr: 0x46400, symBinAddr: 0x478B0, symSize: 0x220 }
  - { offsetInCU: 0x13291C, offset: 0x13291C, size: 0x8, addend: 0x0, symName: __ZL42whisper_exp_compute_token_level_timestampsR15whisper_contextR13whisper_stateiff, symObjAddr: 0x1F350, symBinAddr: 0x20800, symSize: 0xC70 }
  - { offsetInCU: 0x1336D9, offset: 0x1336D9, size: 0x8, addend: 0x0, symName: __ZL20whisper_wrap_segmentR15whisper_contextR13whisper_stateib, symObjAddr: 0x1FFC0, symBinAddr: 0x21470, symSize: 0x4B0 }
  - { offsetInCU: 0x134AE1, offset: 0x134AE1, size: 0x8, addend: 0x0, symName: __ZNSt3__116allocator_traitsINS_9allocatorIZ23whisper_full_with_stateE14beam_candidateEEE7destroyB8ue170006IS2_vEEvRS3_PT_, symObjAddr: 0x40220, symBinAddr: 0x416D0, symSize: 0xE0 }
  - { offsetInCU: 0x135388, offset: 0x135388, size: 0x8, addend: 0x0, symName: __ZNSt3__16vectorINS0_IZ23whisper_full_with_stateE14beam_candidateNS_9allocatorIS1_EEEENS2_IS4_EEE16__destroy_vectorclB8ue170006Ev, symObjAddr: 0x46870, symBinAddr: 0x47D20, symSize: 0x1A0 }
  - { offsetInCU: 0x135EB4, offset: 0x135EB4, size: 0x8, addend: 0x0, symName: __ZNKSt3__16vectorI23whisper_grammar_elementNS_9allocatorIS1_EEE20__throw_length_errorB8ue170006Ev, symObjAddr: 0x39C00, symBinAddr: 0x3B0B0, symSize: 0x10 }
  - { offsetInCU: 0x135EDE, offset: 0x135EDE, size: 0x8, addend: 0x0, symName: __ZNKSt3__16vectorIPK23whisper_grammar_elementNS_9allocatorIS3_EEE20__throw_length_errorB8ue170006Ev, symObjAddr: 0x39C10, symBinAddr: 0x3B0C0, symSize: 0x10 }
  - { offsetInCU: 0x135EE9, offset: 0x135EE9, size: 0x8, addend: 0x0, symName: __ZNKSt3__16vectorIPK23whisper_grammar_elementNS_9allocatorIS3_EEE20__throw_length_errorB8ue170006Ev, symObjAddr: 0x39C10, symBinAddr: 0x3B0C0, symSize: 0x10 }
  - { offsetInCU: 0x135F13, offset: 0x135F13, size: 0x8, addend: 0x0, symName: __ZNSt3__16vectorINS0_IPK23whisper_grammar_elementNS_9allocatorIS3_EEEENS4_IS6_EEE24__emplace_back_slow_pathIJEEEvDpOT_, symObjAddr: 0x39C20, symBinAddr: 0x3B0D0, symSize: 0x190 }
  - { offsetInCU: 0x135F1E, offset: 0x135F1E, size: 0x8, addend: 0x0, symName: __ZNKSt3__16vectorINS0_I23whisper_grammar_elementNS_9allocatorIS1_EEEENS2_IS4_EEE20__throw_length_errorB8ue170006Ev, symObjAddr: 0x39BF0, symBinAddr: 0x3B0A0, symSize: 0x10 }
  - { offsetInCU: 0x135F48, offset: 0x135F48, size: 0x8, addend: 0x0, symName: __ZNKSt3__16vectorI23whisper_grammar_elementNS_9allocatorIS1_EEE20__throw_length_errorB8ue170006Ev, symObjAddr: 0x39C00, symBinAddr: 0x3B0B0, symSize: 0x10 }
  - { offsetInCU: 0x135F53, offset: 0x135F53, size: 0x8, addend: 0x0, symName: __ZNKSt3__16vectorINS0_IPK23whisper_grammar_elementNS_9allocatorIS3_EEEENS4_IS6_EEE20__throw_length_errorB8ue170006Ev, symObjAddr: 0x39E10, symBinAddr: 0x3B2C0, symSize: 0x10 }
  - { offsetInCU: 0x135F7D, offset: 0x135F7D, size: 0x8, addend: 0x0, symName: __ZNSt3__16vectorINS0_IPK23whisper_grammar_elementNS_9allocatorIS3_EEEENS4_IS6_EEE21__push_back_slow_pathIRKS6_EEvOT_, symObjAddr: 0x39E20, symBinAddr: 0x3B2D0, symSize: 0x280 }
  - { offsetInCU: 0x135F88, offset: 0x135F88, size: 0x8, addend: 0x0, symName: __ZNKSt3__16vectorIZ23whisper_full_with_stateE14beam_candidateNS_9allocatorIS1_EEE20__throw_length_errorB8ue170006Ev, symObjAddr: 0x40210, symBinAddr: 0x416C0, symSize: 0x10 }
  - { offsetInCU: 0x135FAE, offset: 0x135FAE, size: 0x8, addend: 0x0, symName: __ZNSt3__116allocator_traitsINS_9allocatorIZ23whisper_full_with_stateE14beam_candidateEEE7destroyB8ue170006IS2_vEEvRS3_PT_, symObjAddr: 0x40220, symBinAddr: 0x416D0, symSize: 0xE0 }
  - { offsetInCU: 0x135FB9, offset: 0x135FB9, size: 0x8, addend: 0x0, symName: __ZN15whisper_segmentD1Ev, symObjAddr: 0x1F310, symBinAddr: 0x207C0, symSize: 0x40 }
  - { offsetInCU: 0x136267, offset: 0x136267, size: 0x8, addend: 0x0, symName: _whisper_full_with_state.cold.1, symObjAddr: 0x4A6B0, symBinAddr: 0x15FC70, symSize: 0x50 }
  - { offsetInCU: 0x136410, offset: 0x136410, size: 0x8, addend: 0x0, symName: _whisper_full_with_state.cold.2, symObjAddr: 0x4A700, symBinAddr: 0x15FCC0, symSize: 0x50 }
  - { offsetInCU: 0x1365B9, offset: 0x1365B9, size: 0x8, addend: 0x0, symName: __ZNSt3__110unique_ptrI12ggml_backend20ggml_backend_deleterED1B8ue170006Ev, symObjAddr: 0x424B0, symBinAddr: 0x43960, symSize: 0x30 }
  - { offsetInCU: 0x136657, offset: 0x136657, size: 0x8, addend: 0x0, symName: _whisper_full_with_state.cold.3, symObjAddr: 0x4A750, symBinAddr: 0x15FD10, symSize: 0x60 }
  - { offsetInCU: 0x13697E, offset: 0x13697E, size: 0x8, addend: 0x0, symName: __ZNSt3__16vectorINS_6threadENS_9allocatorIS1_EEED1B8ue170006Ev, symObjAddr: 0x1F140, symBinAddr: 0x205F0, symSize: 0x70 }
  - { offsetInCU: 0x136B2A, offset: 0x136B2A, size: 0x8, addend: 0x0, symName: __ZNSt3__16vectorINS0_IPK23whisper_grammar_elementNS_9allocatorIS3_EEEENS4_IS6_EEED1B8ue170006Ev, symObjAddr: 0x39B70, symBinAddr: 0x3B020, symSize: 0x80 }
  - { offsetInCU: 0x136E37, offset: 0x136E37, size: 0x8, addend: 0x0, symName: __ZNSt3__16vectorIZ23whisper_full_with_stateE14beam_candidateNS_9allocatorIS1_EEED1B8ue170006Ev, symObjAddr: 0x20470, symBinAddr: 0x21920, symSize: 0x70 }
  - { offsetInCU: 0x136FA7, offset: 0x136FA7, size: 0x8, addend: 0x0, symName: __ZN15whisper_grammaraSEOS_, symObjAddr: 0x1B070, symBinAddr: 0x1C520, symSize: 0x130 }
  - { offsetInCU: 0x138364, offset: 0x138364, size: 0x8, addend: 0x0, symName: __ZNKSt3__13mapINS_12basic_stringIcNS_11char_traitsIcEENS_9allocatorIcEEEEiNS_4lessIS6_EENS4_INS_4pairIKS6_iEEEEE2atERSA_, symObjAddr: 0x3A0A0, symBinAddr: 0x3B550, symSize: 0x110 }
  - { offsetInCU: 0x13860B, offset: 0x13860B, size: 0x8, addend: 0x0, symName: __ZNSt3__111basic_regexIcNS_12regex_traitsIcEEEC2B8ue170006EPKcNS_15regex_constants18syntax_option_typeE, symObjAddr: 0x3A1B0, symBinAddr: 0x3B660, symSize: 0xB0 }
  - { offsetInCU: 0x1387D2, offset: 0x1387D2, size: 0x8, addend: 0x0, symName: __ZNKSt3__16__treeINS_12__value_typeINS_12basic_stringIcNS_11char_traitsIcEENS_9allocatorIcEEEEiEENS_19__map_value_compareIS7_S8_NS_4lessIS7_EELb1EEENS5_IS8_EEE4findIS7_EENS_21__tree_const_iteratorIS8_PNS_11__tree_nodeIS8_PvEElEERKT_, symObjAddr: 0x39100, symBinAddr: 0x3A5B0, symSize: 0x120 }
  - { offsetInCU: 0x138AC2, offset: 0x138AC2, size: 0x8, addend: 0x0, symName: __ZNSt3__16vectorINS_4pairINS0_IjNS_9allocatorIjEEEE20whisper_partial_utf8EENS2_IS6_EEE21__push_back_slow_pathIS6_EEvOT_, symObjAddr: 0x3E890, symBinAddr: 0x3FD40, symSize: 0x180 }
  - { offsetInCU: 0x13930C, offset: 0x13930C, size: 0x8, addend: 0x0, symName: __ZL33whisper_grammar_reject_candidatesRKNSt3__16vectorINS0_I23whisper_grammar_elementNS_9allocatorIS1_EEEENS2_IS4_EEEERKNS0_INS0_IPKS1_NS2_ISA_EEEENS2_ISC_EEEERKNS0_I25whisper_grammar_candidateNS2_ISH_EEEE, symObjAddr: 0x3E700, symBinAddr: 0x3FBB0, symSize: 0x110 }
  - { offsetInCU: 0x139778, offset: 0x139778, size: 0x8, addend: 0x0, symName: __ZL22whisper_process_logitsR15whisper_contextR13whisper_stateR15whisper_decoder19whisper_full_paramsf.cold.1, symObjAddr: 0x4A7B0, symBinAddr: 0x15FD70, symSize: 0x30 }
  - { offsetInCU: 0x139790, offset: 0x139790, size: 0x8, addend: 0x0, symName: __ZNKSt3__16vectorI25whisper_grammar_candidateNS_9allocatorIS1_EEE20__throw_length_errorB8ue170006Ev, symObjAddr: 0x3EA20, symBinAddr: 0x3FED0, symSize: 0x10 }
  - { offsetInCU: 0x1397BA, offset: 0x1397BA, size: 0x8, addend: 0x0, symName: __ZL43whisper_grammar_reject_candidates_for_stackRKNSt3__16vectorINS0_I23whisper_grammar_elementNS_9allocatorIS1_EEEENS2_IS4_EEEERKNS0_IPKS1_NS2_ISA_EEEERKNS0_I25whisper_grammar_candidateNS2_ISF_EEEE, symObjAddr: 0x3EA30, symBinAddr: 0x3FEE0, symSize: 0xF30 }
  - { offsetInCU: 0x1397C5, offset: 0x1397C5, size: 0x8, addend: 0x0, symName: __ZNSt3__16vectorINS_4pairINS0_IjNS_9allocatorIjEEEE20whisper_partial_utf8EENS2_IS6_EEED1B8ue170006Ev, symObjAddr: 0x3E810, symBinAddr: 0x3FCC0, symSize: 0x80 }
  - { offsetInCU: 0x13A60B, offset: 0x13A60B, size: 0x8, addend: 0x0, symName: __ZNSt3__16vectorI12whisper_pairIdiENS_9allocatorIS2_EEE8__appendEm, symObjAddr: 0x40070, symBinAddr: 0x41520, symSize: 0x190 }
  - { offsetInCU: 0x13ACD5, offset: 0x13ACD5, size: 0x8, addend: 0x0, symName: __ZNSt3__121discrete_distributionIiE10param_type6__initEv, symObjAddr: 0x3FA50, symBinAddr: 0x40F00, symSize: 0x260 }
  - { offsetInCU: 0x13B43D, offset: 0x13B43D, size: 0x8, addend: 0x0, symName: __ZNSt3__121discrete_distributionIiEclINS_23mersenne_twister_engineIjLm32ELm624ELm397ELm31ELj2567483615ELm11ELj4294967295ELm7ELj2636928640ELm15ELj4022730752ELm18ELj1812433253EEEEEiRT_RKNS1_10param_typeE, symObjAddr: 0x3FE80, symBinAddr: 0x41330, symSize: 0x1F0 }
  - { offsetInCU: 0x13B796, offset: 0x13B796, size: 0x8, addend: 0x0, symName: __ZNSt3__16vectorINS0_I23whisper_grammar_elementNS_9allocatorIS1_EEEENS2_IS4_EEEC2ERKS6_, symObjAddr: 0x40300, symBinAddr: 0x417B0, symSize: 0xD0 }
  - { offsetInCU: 0x13BA65, offset: 0x13BA65, size: 0x8, addend: 0x0, symName: __ZNSt3__16vectorINS0_IPK23whisper_grammar_elementNS_9allocatorIS3_EEEENS4_IS6_EEEC2ERKS8_, symObjAddr: 0x40520, symBinAddr: 0x419D0, symSize: 0xD0 }
  - { offsetInCU: 0x13BD34, offset: 0x13BD34, size: 0x8, addend: 0x0, symName: __ZNKSt3__16vectorIdNS_9allocatorIdEEE20__throw_length_errorB8ue170006Ev, symObjAddr: 0x3FCB0, symBinAddr: 0x41160, symSize: 0x10 }
  - { offsetInCU: 0x13BD5E, offset: 0x13BD5E, size: 0x8, addend: 0x0, symName: __ZNSt3__16vectorIdNS_9allocatorIdEEE13shrink_to_fitEv, symObjAddr: 0x3FCC0, symBinAddr: 0x41170, symSize: 0x1C0 }
  - { offsetInCU: 0x13BD69, offset: 0x13BD69, size: 0x8, addend: 0x0, symName: __ZZ23whisper_full_with_stateEN14beam_candidateD1Ev, symObjAddr: 0x3F960, symBinAddr: 0x40E10, symSize: 0xE0 }
  - { offsetInCU: 0x13C5CD, offset: 0x13C5CD, size: 0x8, addend: 0x0, symName: '__ZZ23whisper_full_with_stateENK4$_16clEv.cold.1', symObjAddr: 0x4A7E0, symBinAddr: 0x15FDA0, symSize: 0x60 }
  - { offsetInCU: 0x13CAD1, offset: 0x13CAD1, size: 0x8, addend: 0x0, symName: __ZN15whisper_segmentC2ERKS_, symObjAddr: 0x41060, symBinAddr: 0x42510, symSize: 0x190 }
  - { offsetInCU: 0x13D556, offset: 0x13D556, size: 0x8, addend: 0x0, symName: __ZNSt3__16vectorI18whisper_token_dataNS_9allocatorIS1_EEE18__insert_with_sizeB8ue170006INS_11__wrap_iterIPS1_EES8_EES8_NS6_IPKS1_EET_T0_l, symObjAddr: 0x411F0, symBinAddr: 0x426A0, symSize: 0x2E0 }
  - { offsetInCU: 0x13E33B, offset: 0x13E33B, size: 0x8, addend: 0x0, symName: __ZNSt3__16vectorI18whisper_token_dataNS_9allocatorIS1_EEE18__assign_with_sizeB8ue170006IPS1_S6_EEvT_T0_l, symObjAddr: 0x40740, symBinAddr: 0x41BF0, symSize: 0x160 }
  - { offsetInCU: 0x13EDF9, offset: 0x13EDF9, size: 0x8, addend: 0x0, symName: _whisper_full, symObjAddr: 0x204E0, symBinAddr: 0x21990, symSize: 0x190 }
  - { offsetInCU: 0x13F5BA, offset: 0x13F5BA, size: 0x8, addend: 0x0, symName: __ZL11whisper_vadP15whisper_contextP13whisper_state19whisper_full_paramsPKfiRNSt3__16vectorIfNS6_9allocatorIfEEEE, symObjAddr: 0x20670, symBinAddr: 0x21B20, symSize: 0x1180 }
  - { offsetInCU: 0x1438A2, offset: 0x1438A2, size: 0x8, addend: 0x0, symName: __ZNKSt3__16vectorI16vad_time_mappingNS_9allocatorIS1_EEE20__throw_length_errorB8ue170006Ev, symObjAddr: 0x414E0, symBinAddr: 0x42990, symSize: 0x10 }
  - { offsetInCU: 0x1438CC, offset: 0x1438CC, size: 0x8, addend: 0x0, symName: '__ZNSt3__111__introsortINS_17_ClassicAlgPolicyERZL11whisper_vadP15whisper_contextP13whisper_state19whisper_full_paramsPKfiRNS_6vectorIfNS_9allocatorIfEEEEE4$_22P16vad_time_mappingLb0EEEvT1_SI_T0_NS_15iterator_traitsISI_E15difference_typeEb', symObjAddr: 0x414F0, symBinAddr: 0x429A0, symSize: 0xB80 }
  - { offsetInCU: 0x1438D7, offset: 0x1438D7, size: 0x8, addend: 0x0, symName: __ZNKSt3__16vectorIN13whisper_state16vad_segment_infoENS_9allocatorIS2_EEE20__throw_length_errorB8ue170006Ev, symObjAddr: 0x414D0, symBinAddr: 0x42980, symSize: 0x10 }
  - { offsetInCU: 0x143901, offset: 0x143901, size: 0x8, addend: 0x0, symName: __ZNKSt3__16vectorI16vad_time_mappingNS_9allocatorIS1_EEE20__throw_length_errorB8ue170006Ev, symObjAddr: 0x414E0, symBinAddr: 0x42990, symSize: 0x10 }
  - { offsetInCU: 0x143F52, offset: 0x143F52, size: 0x8, addend: 0x0, symName: _whisper_full_parallel, symObjAddr: 0x217F0, symBinAddr: 0x22CA0, symSize: 0xAC0 }
  - { offsetInCU: 0x145A6E, offset: 0x145A6E, size: 0x8, addend: 0x0, symName: __ZNSt3__16threadC2IRFiP15whisper_contextP13whisper_state19whisper_full_paramsPKfiEJRS3_RS5_S6_S8_RKiEvEEOT_DpOT0_, symObjAddr: 0x4A2D0, symBinAddr: 0x4B780, symSize: 0x110 }
  - { offsetInCU: 0x14608E, offset: 0x14608E, size: 0x8, addend: 0x0, symName: __ZNKSt3__16vectorIP13whisper_stateNS_9allocatorIS2_EEE20__throw_length_errorB8ue170006Ev, symObjAddr: 0x4A2C0, symBinAddr: 0x4B770, symSize: 0x10 }
  - { offsetInCU: 0x1460B8, offset: 0x1460B8, size: 0x8, addend: 0x0, symName: __ZNSt3__16threadC2IRFiP15whisper_contextP13whisper_state19whisper_full_paramsPKfiEJRS3_RS5_S6_S8_RKiEvEEOT_DpOT0_, symObjAddr: 0x4A2D0, symBinAddr: 0x4B780, symSize: 0x110 }
  - { offsetInCU: 0x1460C3, offset: 0x1460C3, size: 0x8, addend: 0x0, symName: _whisper_full_parallel.cold.1, symObjAddr: 0x4A840, symBinAddr: 0x15FE00, symSize: 0x50 }
  - { offsetInCU: 0x14626C, offset: 0x14626C, size: 0x8, addend: 0x0, symName: _whisper_full_n_segments_from_state, symObjAddr: 0x222B0, symBinAddr: 0x23760, symSize: 0x20 }
  - { offsetInCU: 0x1462BA, offset: 0x1462BA, size: 0x8, addend: 0x0, symName: _whisper_full_n_segments, symObjAddr: 0x222D0, symBinAddr: 0x23780, symSize: 0x30 }
  - { offsetInCU: 0x146308, offset: 0x146308, size: 0x8, addend: 0x0, symName: _whisper_full_lang_id_from_state, symObjAddr: 0x22300, symBinAddr: 0x237B0, symSize: 0x10 }
  - { offsetInCU: 0x146333, offset: 0x146333, size: 0x8, addend: 0x0, symName: _whisper_full_lang_id, symObjAddr: 0x22310, symBinAddr: 0x237C0, symSize: 0x20 }
  - { offsetInCU: 0x1464BE, offset: 0x1464BE, size: 0x8, addend: 0x0, symName: _whisper_full_get_segment_t0_from_state, symObjAddr: 0x22330, symBinAddr: 0x237E0, symSize: 0xF0 }
  - { offsetInCU: 0x1467BE, offset: 0x1467BE, size: 0x8, addend: 0x0, symName: _whisper_full_get_segment_t1_from_state, symObjAddr: 0x22420, symBinAddr: 0x238D0, symSize: 0x1A0 }
  - { offsetInCU: 0x146D06, offset: 0x146D06, size: 0x8, addend: 0x0, symName: _whisper_full_get_segment_t0, symObjAddr: 0x225C0, symBinAddr: 0x23A70, symSize: 0x100 }
  - { offsetInCU: 0x146FFE, offset: 0x146FFE, size: 0x8, addend: 0x0, symName: _whisper_full_get_segment_t1, symObjAddr: 0x226C0, symBinAddr: 0x23B70, symSize: 0x20 }
  - { offsetInCU: 0x147051, offset: 0x147051, size: 0x8, addend: 0x0, symName: _whisper_full_get_segment_speaker_turn_next_from_state, symObjAddr: 0x226E0, symBinAddr: 0x23B90, symSize: 0x20 }
  - { offsetInCU: 0x1470B6, offset: 0x1470B6, size: 0x8, addend: 0x0, symName: _whisper_full_get_segment_speaker_turn_next, symObjAddr: 0x22700, symBinAddr: 0x23BB0, symSize: 0x30 }
  - { offsetInCU: 0x14711B, offset: 0x14711B, size: 0x8, addend: 0x0, symName: _whisper_full_get_segment_text_from_state, symObjAddr: 0x22730, symBinAddr: 0x23BE0, symSize: 0x30 }
  - { offsetInCU: 0x147228, offset: 0x147228, size: 0x8, addend: 0x0, symName: _whisper_full_get_segment_text, symObjAddr: 0x22760, symBinAddr: 0x23C10, symSize: 0x40 }
  - { offsetInCU: 0x147335, offset: 0x147335, size: 0x8, addend: 0x0, symName: _whisper_full_n_tokens_from_state, symObjAddr: 0x227A0, symBinAddr: 0x23C50, symSize: 0x30 }
  - { offsetInCU: 0x1473B0, offset: 0x1473B0, size: 0x8, addend: 0x0, symName: _whisper_full_n_tokens, symObjAddr: 0x227D0, symBinAddr: 0x23C80, symSize: 0x40 }
  - { offsetInCU: 0x14742B, offset: 0x14742B, size: 0x8, addend: 0x0, symName: _whisper_full_get_token_text_from_state, symObjAddr: 0x22810, symBinAddr: 0x23CC0, symSize: 0x100 }
  - { offsetInCU: 0x1478D3, offset: 0x1478D3, size: 0x8, addend: 0x0, symName: _whisper_full_get_token_text, symObjAddr: 0x22910, symBinAddr: 0x23DC0, symSize: 0x110 }
  - { offsetInCU: 0x147D48, offset: 0x147D48, size: 0x8, addend: 0x0, symName: _whisper_full_get_token_id_from_state, symObjAddr: 0x22A20, symBinAddr: 0x23ED0, symSize: 0x30 }
  - { offsetInCU: 0x147DDD, offset: 0x147DDD, size: 0x8, addend: 0x0, symName: _whisper_full_get_token_id, symObjAddr: 0x22A50, symBinAddr: 0x23F00, symSize: 0x30 }
  - { offsetInCU: 0x147E72, offset: 0x147E72, size: 0x8, addend: 0x0, symName: _whisper_full_get_token_data_from_state, symObjAddr: 0x22A80, symBinAddr: 0x23F30, symSize: 0x50 }
  - { offsetInCU: 0x147F0B, offset: 0x147F0B, size: 0x8, addend: 0x0, symName: _whisper_full_get_token_data, symObjAddr: 0x22AD0, symBinAddr: 0x23F80, symSize: 0x50 }
  - { offsetInCU: 0x147FA4, offset: 0x147FA4, size: 0x8, addend: 0x0, symName: _whisper_full_get_token_p_from_state, symObjAddr: 0x22B20, symBinAddr: 0x23FD0, symSize: 0x30 }
  - { offsetInCU: 0x148039, offset: 0x148039, size: 0x8, addend: 0x0, symName: _whisper_full_get_token_p, symObjAddr: 0x22B50, symBinAddr: 0x24000, symSize: 0x40 }
  - { offsetInCU: 0x1480CE, offset: 0x1480CE, size: 0x8, addend: 0x0, symName: _whisper_full_get_segment_no_speech_prob, symObjAddr: 0x22B90, symBinAddr: 0x24040, symSize: 0x30 }
  - { offsetInCU: 0x148133, offset: 0x148133, size: 0x8, addend: 0x0, symName: _whisper_full_get_segment_no_speech_prob_from_state, symObjAddr: 0x22BC0, symBinAddr: 0x24070, symSize: 0x20 }
  - { offsetInCU: 0x148198, offset: 0x148198, size: 0x8, addend: 0x0, symName: _whisper_bench_memcpy, symObjAddr: 0x22BE0, symBinAddr: 0x24090, symSize: 0x20 }
  - { offsetInCU: 0x148747, offset: 0x148747, size: 0x8, addend: 0x0, symName: _whisper_bench_memcpy_str.cold.1, symObjAddr: 0x4A890, symBinAddr: 0x15FE50, symSize: 0x50 }
  - { offsetInCU: 0x1488F0, offset: 0x1488F0, size: 0x8, addend: 0x0, symName: _whisper_bench_ggml_mul_mat, symObjAddr: 0x23BB0, symBinAddr: 0x25060, symSize: 0x20 }
  - { offsetInCU: 0x148D8A, offset: 0x148D8A, size: 0x8, addend: 0x0, symName: _whisper_log_set, symObjAddr: 0x245E0, symBinAddr: 0x25A90, symSize: 0x30 }
  - { offsetInCU: 0x148DD9, offset: 0x148DD9, size: 0x8, addend: 0x0, symName: __ZL28whisper_log_callback_default14ggml_log_levelPKcPv, symObjAddr: 0x24610, symBinAddr: 0x25AC0, symSize: 0x30 }
  - { offsetInCU: 0x14909D, offset: 0x14909D, size: 0x8, addend: 0x0, symName: __ZN15whisper_decoderD2Ev, symObjAddr: 0x24D70, symBinAddr: 0x26220, symSize: 0x140 }
  - { offsetInCU: 0x149E55, offset: 0x149E55, size: 0x8, addend: 0x0, symName: __ZNSt12length_errorC1B8ue170006EPKc, symObjAddr: 0x24F50, symBinAddr: 0x26400, symSize: 0x30 }
  - { offsetInCU: 0x14A570, offset: 0x14A570, size: 0x8, addend: 0x0, symName: __ZNKSt3__16vectorI15whisper_kv_cellNS_9allocatorIS1_EEE20__throw_length_errorB8ue170006Ev, symObjAddr: 0x251F0, symBinAddr: 0x266A0, symSize: 0x10 }
  - { offsetInCU: 0x14A59A, offset: 0x14A59A, size: 0x8, addend: 0x0, symName: __ZL28get_alignment_heads_by_layerRK22whisper_context_paramsiii, symObjAddr: 0x25200, symBinAddr: 0x266B0, symSize: 0x630 }
  - { offsetInCU: 0x14A987, offset: 0x14A987, size: 0x8, addend: 0x0, symName: __ZNKSt3__16vectorIjNS_9allocatorIjEEE20__throw_length_errorB8ue170006Ev, symObjAddr: 0x258B0, symBinAddr: 0x26D60, symSize: 0x10 }
  - { offsetInCU: 0x14A9B1, offset: 0x14A9B1, size: 0x8, addend: 0x0, symName: __ZNKSt3__16vectorIP11ggml_tensorNS_9allocatorIS2_EEE20__throw_length_errorB8ue170006Ev, symObjAddr: 0x258C0, symBinAddr: 0x26D70, symSize: 0x10 }
  - { offsetInCU: 0x14A9BC, offset: 0x14A9BC, size: 0x8, addend: 0x0, symName: __ZNSt12out_of_rangeC1B8ue170006EPKc, symObjAddr: 0x25880, symBinAddr: 0x26D30, symSize: 0x30 }
  - { offsetInCU: 0x14AAAB, offset: 0x14AAAB, size: 0x8, addend: 0x0, symName: __ZNSt3__117bad_function_callD1Ev, symObjAddr: 0x25910, symBinAddr: 0x26DC0, symSize: 0x10 }
  - { offsetInCU: 0x14AB04, offset: 0x14AB04, size: 0x8, addend: 0x0, symName: __ZNSt3__117bad_function_callD0Ev, symObjAddr: 0x25920, symBinAddr: 0x26DD0, symSize: 0x20 }
  - { offsetInCU: 0x14ABC7, offset: 0x14ABC7, size: 0x8, addend: 0x0, symName: '__ZZ43whisper_init_from_file_with_params_no_stateEN3$_48__invokeEPvS0_m', symObjAddr: 0x25940, symBinAddr: 0x26DF0, symSize: 0x20 }
  - { offsetInCU: 0x14ACB5, offset: 0x14ACB5, size: 0x8, addend: 0x0, symName: '__ZZ43whisper_init_from_file_with_params_no_stateEN3$_58__invokeEPv', symObjAddr: 0x25960, symBinAddr: 0x26E10, symSize: 0x20 }
  - { offsetInCU: 0x14AEE3, offset: 0x14AEE3, size: 0x8, addend: 0x0, symName: '__ZZ43whisper_init_from_file_with_params_no_stateEN3$_68__invokeEPv', symObjAddr: 0x25980, symBinAddr: 0x26E30, symSize: 0x90 }
  - { offsetInCU: 0x14B08F, offset: 0x14B08F, size: 0x8, addend: 0x0, symName: __ZTv0_n24_NSt3__114basic_ifstreamIcNS_11char_traitsIcEEED1Ev, symObjAddr: 0x25A10, symBinAddr: 0x26EC0, symSize: 0x70 }
  - { offsetInCU: 0x14B119, offset: 0x14B119, size: 0x8, addend: 0x0, symName: __ZNSt3__114basic_ifstreamIcNS_11char_traitsIcEEED0Ev, symObjAddr: 0x25A80, symBinAddr: 0x26F30, symSize: 0x60 }
  - { offsetInCU: 0x14B1CE, offset: 0x14B1CE, size: 0x8, addend: 0x0, symName: __ZTv0_n24_NSt3__114basic_ifstreamIcNS_11char_traitsIcEEED0Ev, symObjAddr: 0x25AE0, symBinAddr: 0x26F90, symSize: 0x70 }
  - { offsetInCU: 0x14B276, offset: 0x14B276, size: 0x8, addend: 0x0, symName: __ZNSt3__113basic_filebufIcNS_11char_traitsIcEEED1Ev, symObjAddr: 0x25B50, symBinAddr: 0x27000, symSize: 0x10 }
  - { offsetInCU: 0x14B2AE, offset: 0x14B2AE, size: 0x8, addend: 0x0, symName: __ZNSt3__113basic_filebufIcNS_11char_traitsIcEEE4syncEv, symObjAddr: 0x26070, symBinAddr: 0x27520, symSize: 0x2E0 }
  - { offsetInCU: 0x14B578, offset: 0x14B578, size: 0x8, addend: 0x0, symName: __ZNSt3__113basic_filebufIcNS_11char_traitsIcEEED0Ev, symObjAddr: 0x25C10, symBinAddr: 0x270C0, symSize: 0x20 }
  - { offsetInCU: 0x14B631, offset: 0x14B631, size: 0x8, addend: 0x0, symName: __ZNSt3__113basic_filebufIcNS_11char_traitsIcEEE5imbueERKNS_6localeE, symObjAddr: 0x25C30, symBinAddr: 0x270E0, symSize: 0x100 }
  - { offsetInCU: 0x14B70F, offset: 0x14B70F, size: 0x8, addend: 0x0, symName: __ZNSt3__113basic_filebufIcNS_11char_traitsIcEEE6setbufEPcl, symObjAddr: 0x25D30, symBinAddr: 0x271E0, symSize: 0x110 }
  - { offsetInCU: 0x14B818, offset: 0x14B818, size: 0x8, addend: 0x0, symName: __ZNSt3__113basic_filebufIcNS_11char_traitsIcEEE7seekoffExNS_8ios_base7seekdirEj, symObjAddr: 0x25E40, symBinAddr: 0x272F0, symSize: 0x130 }
  - { offsetInCU: 0x14B9D9, offset: 0x14B9D9, size: 0x8, addend: 0x0, symName: __ZNSt3__113basic_filebufIcNS_11char_traitsIcEEE7seekposENS_4fposI11__mbstate_tEEj, symObjAddr: 0x25F70, symBinAddr: 0x27420, symSize: 0x100 }
  - { offsetInCU: 0x14BBF9, offset: 0x14BBF9, size: 0x8, addend: 0x0, symName: __ZNSt3__113basic_filebufIcNS_11char_traitsIcEEE9underflowEv, symObjAddr: 0x26350, symBinAddr: 0x27800, symSize: 0x2E0 }
  - { offsetInCU: 0x14BF4D, offset: 0x14BF4D, size: 0x8, addend: 0x0, symName: __ZNSt3__113basic_filebufIcNS_11char_traitsIcEEE9pbackfailEi, symObjAddr: 0x26630, symBinAddr: 0x27AE0, symSize: 0x50 }
  - { offsetInCU: 0x14C117, offset: 0x14C117, size: 0x8, addend: 0x0, symName: __ZNSt3__113basic_filebufIcNS_11char_traitsIcEEE8overflowEi, symObjAddr: 0x26680, symBinAddr: 0x27B30, symSize: 0x250 }
  - { offsetInCU: 0x14C51F, offset: 0x14C51F, size: 0x8, addend: 0x0, symName: '__ZZ45whisper_init_from_buffer_with_params_no_stateEN3$_78__invokeEPvS0_m', symObjAddr: 0x26910, symBinAddr: 0x27DC0, symSize: 0x40 }
  - { offsetInCU: 0x14C5EF, offset: 0x14C5EF, size: 0x8, addend: 0x0, symName: '__ZZ45whisper_init_from_buffer_with_params_no_stateEN3$_88__invokeEPv', symObjAddr: 0x26950, symBinAddr: 0x27E00, symSize: 0x20 }
  - { offsetInCU: 0x14C638, offset: 0x14C638, size: 0x8, addend: 0x0, symName: '__ZZ45whisper_init_from_buffer_with_params_no_stateEN3$_98__invokeEPv', symObjAddr: 0x26970, symBinAddr: 0x27E20, symSize: 0x10 }
  - { offsetInCU: 0x14CB77, offset: 0x14CB77, size: 0x8, addend: 0x0, symName: __ZNKSt3__13mapI10asr_systemNS0_I10asr_tensorPKcNS_4lessIS2_EENS_9allocatorINS_4pairIKS2_S4_EEEEEENS5_IS1_EENS7_INS8_IKS1_SC_EEEEE2atERSE_, symObjAddr: 0x27BE0, symBinAddr: 0x29090, symSize: 0x50 }
  - { offsetInCU: 0x14CCA8, offset: 0x14CCA8, size: 0x8, addend: 0x0, symName: __ZNKSt3__13mapI10asr_tensorPKcNS_4lessIS1_EENS_9allocatorINS_4pairIKS1_S3_EEEEE2atERS8_, symObjAddr: 0x27C30, symBinAddr: 0x290E0, symSize: 0x50 }
  - { offsetInCU: 0x14D57A, offset: 0x14D57A, size: 0x8, addend: 0x0, symName: __ZNKSt3__16vectorI21whisper_layer_encoderNS_9allocatorIS1_EEE20__throw_length_errorB8ue170006Ev, symObjAddr: 0x277E0, symBinAddr: 0x28C90, symSize: 0x10 }
  - { offsetInCU: 0x14D5A4, offset: 0x14D5A4, size: 0x8, addend: 0x0, symName: __ZNSt3__16vectorI21whisper_layer_decoderNS_9allocatorIS1_EEE8__appendEm, symObjAddr: 0x277F0, symBinAddr: 0x28CA0, symSize: 0x1E0 }
  - { offsetInCU: 0x14D97F, offset: 0x14D97F, size: 0x8, addend: 0x0, symName: __ZNKSt3__16vectorI21whisper_layer_decoderNS_9allocatorIS1_EEE20__throw_length_errorB8ue170006Ev, symObjAddr: 0x279D0, symBinAddr: 0x28E80, symSize: 0x10 }
  - { offsetInCU: 0x14D9A9, offset: 0x14D9A9, size: 0x8, addend: 0x0, symName: __ZL6formatPKcz, symObjAddr: 0x279E0, symBinAddr: 0x28E90, symSize: 0x200 }
  - { offsetInCU: 0x14DDB8, offset: 0x14DDB8, size: 0x8, addend: 0x0, symName: __ZNSt3__16__treeINS_12__value_typeIiNS_12basic_stringIcNS_11char_traitsIcEENS_9allocatorIcEEEEEENS_19__map_value_compareIiS8_NS_4lessIiEELb1EEENS5_IS8_EEE7destroyEPNS_11__tree_nodeIS8_PvEE, symObjAddr: 0x27DB0, symBinAddr: 0x29260, symSize: 0x50 }
  - { offsetInCU: 0x14E0AA, offset: 0x14E0AA, size: 0x8, addend: 0x0, symName: __ZNSt3__16__treeINS_12__value_typeINS_12basic_stringIcNS_11char_traitsIcEENS_9allocatorIcEEEEiEENS_19__map_value_compareIS7_S8_NS_4lessIS7_EELb1EEENS5_IS8_EEE7destroyEPNS_11__tree_nodeIS8_PvEE, symObjAddr: 0x27E00, symBinAddr: 0x292B0, symSize: 0x50 }
  - { offsetInCU: 0x14E39C, offset: 0x14E39C, size: 0x8, addend: 0x0, symName: __ZNSt3__16__treeINS_12__value_typeINS_12basic_stringIcNS_11char_traitsIcEENS_9allocatorIcEEEEP11ggml_tensorEENS_19__map_value_compareIS7_SA_NS_4lessIS7_EELb1EEENS5_ISA_EEE7destroyEPNS_11__tree_nodeISA_PvEE, symObjAddr: 0x27E50, symBinAddr: 0x29300, symSize: 0x50 }
  - { offsetInCU: 0x14EC18, offset: 0x14EC18, size: 0x8, addend: 0x0, symName: __ZL3fftPfiS_, symObjAddr: 0x28F00, symBinAddr: 0x2A3B0, symSize: 0xE90 }
  - { offsetInCU: 0x14F8ED, offset: 0x14F8ED, size: 0x8, addend: 0x0, symName: __ZNSt3__110unique_ptrINS_5tupleIJNS0_INS_15__thread_structENS_14default_deleteIS2_EEEEPFviPKfRKNS_6vectorIfNS_9allocatorIfEEEEiiiiRK15whisper_filtersR11whisper_melEiS7_NS_17reference_wrapperISC_EExiiiNSL_ISF_EENSL_ISH_EEEEENS3_ISP_EEED1B8ue170006Ev, symObjAddr: 0x29F50, symBinAddr: 0x2B400, symSize: 0x50 }
  - { offsetInCU: 0x14FABD, offset: 0x14FABD, size: 0x8, addend: 0x0, symName: __ZNSt3__110unique_ptrINS_15__thread_structENS_14default_deleteIS1_EEED1B8ue170006Ev, symObjAddr: 0x29FA0, symBinAddr: 0x2B450, symSize: 0x40 }
  - { offsetInCU: 0x14FE71, offset: 0x14FE71, size: 0x8, addend: 0x0, symName: __ZL27whisper_build_graph_encoderR15whisper_contextR13whisper_state.cold.1, symObjAddr: 0x4A8E0, symBinAddr: 0x15FEA0, symSize: 0x30 }
  - { offsetInCU: 0x14FF28, offset: 0x14FF28, size: 0x8, addend: 0x0, symName: __ZL27whisper_build_graph_decoderR15whisper_contextR13whisper_stateRK13whisper_batchbb.cold.1, symObjAddr: 0x4A910, symBinAddr: 0x15FED0, symSize: 0x30 }
  - { offsetInCU: 0x14FFE2, offset: 0x14FFE2, size: 0x8, addend: 0x0, symName: __ZNSt3__111basic_regexIcNS_12regex_traitsIcEEE7__parseINS_11__wrap_iterIPKcEEEET_S9_S9_, symObjAddr: 0x2BF50, symBinAddr: 0x2D400, symSize: 0x1C0 }
  - { offsetInCU: 0x150618, offset: 0x150618, size: 0x8, addend: 0x0, symName: __ZNSt3__110shared_ptrINS_13__empty_stateIcEEED1B8ue170006Ev, symObjAddr: 0x2BF10, symBinAddr: 0x2D3C0, symSize: 0x40 }
  - { offsetInCU: 0x150DCA, offset: 0x150DCA, size: 0x8, addend: 0x0, symName: __ZNSt3__111basic_regexIcNS_12regex_traitsIcEEE13__parse_egrepINS_11__wrap_iterIPKcEEEET_S9_S9_, symObjAddr: 0x2C890, symBinAddr: 0x2DD40, symSize: 0x1E0 }
  - { offsetInCU: 0x151471, offset: 0x151471, size: 0x8, addend: 0x0, symName: __ZNSt3__111basic_regexIcNS_12regex_traitsIcEEE24__parse_extended_reg_expINS_11__wrap_iterIPKcEEEET_S9_S9_, symObjAddr: 0x2C520, symBinAddr: 0x2D9D0, symSize: 0x190 }
  - { offsetInCU: 0x15191B, offset: 0x15191B, size: 0x8, addend: 0x0, symName: __ZNSt3__111basic_regexIcNS_12regex_traitsIcEEE16__parse_ecma_expINS_11__wrap_iterIPKcEEEET_S9_S9_, symObjAddr: 0x2C160, symBinAddr: 0x2D610, symSize: 0x270 }
  - { offsetInCU: 0x152073, offset: 0x152073, size: 0x8, addend: 0x0, symName: __ZNSt3__111basic_regexIcNS_12regex_traitsIcEEE21__parse_basic_reg_expINS_11__wrap_iterIPKcEEEET_S9_S9_, symObjAddr: 0x2C3D0, symBinAddr: 0x2D880, symSize: 0x150 }
  - { offsetInCU: 0x1524E0, offset: 0x1524E0, size: 0x8, addend: 0x0, symName: __ZNSt3__111basic_regexIcNS_12regex_traitsIcEEE12__parse_grepINS_11__wrap_iterIPKcEEEET_S9_S9_, symObjAddr: 0x2C6B0, symBinAddr: 0x2DB60, symSize: 0x1E0 }
  - { offsetInCU: 0x152DBA, offset: 0x152DBA, size: 0x8, addend: 0x0, symName: __ZNSt3__111basic_regexIcNS_12regex_traitsIcEEE17__parse_assertionINS_11__wrap_iterIPKcEEEET_S9_S9_, symObjAddr: 0x2CC90, symBinAddr: 0x2E140, symSize: 0x2C0 }
  - { offsetInCU: 0x153534, offset: 0x153534, size: 0x8, addend: 0x0, symName: __ZNSt3__111basic_regexIcNS_12regex_traitsIcEEE12__parse_atomINS_11__wrap_iterIPKcEEEET_S9_S9_, symObjAddr: 0x2CF50, symBinAddr: 0x2E400, symSize: 0x2E0 }
  - { offsetInCU: 0x153A39, offset: 0x153A39, size: 0x8, addend: 0x0, symName: __ZNSt3__111basic_regexIcNS_12regex_traitsIcEEE23__parse_ERE_dupl_symbolINS_11__wrap_iterIPKcEEEET_S9_S9_PNS_16__owns_one_stateIcEEjj, symObjAddr: 0x2D230, symBinAddr: 0x2E6E0, symSize: 0x3B0 }
  - { offsetInCU: 0x15440E, offset: 0x15440E, size: 0x8, addend: 0x0, symName: __ZNSt3__111basic_regexIcNS_12regex_traitsIcEEE18__parse_nondupl_REINS_11__wrap_iterIPKcEEEET_S9_S9_, symObjAddr: 0x35470, symBinAddr: 0x36920, symSize: 0x1D0 }
  - { offsetInCU: 0x154AD2, offset: 0x154AD2, size: 0x8, addend: 0x0, symName: __ZNSt3__111basic_regexIcNS_12regex_traitsIcEEE22__parse_RE_dupl_symbolINS_11__wrap_iterIPKcEEEET_S9_S9_PNS_16__owns_one_stateIcEEjj, symObjAddr: 0x35640, symBinAddr: 0x36AF0, symSize: 0x260 }
  - { offsetInCU: 0x155305, offset: 0x155305, size: 0x8, addend: 0x0, symName: __ZNSt3__111basic_regexIcNS_12regex_traitsIcEEE32__parse_one_char_or_coll_elem_REINS_11__wrap_iterIPKcEEEET_S9_S9_, symObjAddr: 0x358A0, symBinAddr: 0x36D50, symSize: 0xF0 }
  - { offsetInCU: 0x15535F, offset: 0x15535F, size: 0x8, addend: 0x0, symName: __ZNSt3__111basic_regexIcNS_12regex_traitsIcEEE22__parse_ERE_expressionINS_11__wrap_iterIPKcEEEET_S9_S9_, symObjAddr: 0x35A80, symBinAddr: 0x36F30, symSize: 0x260 }
  - { offsetInCU: 0x155942, offset: 0x155942, size: 0x8, addend: 0x0, symName: __ZNSt3__111__end_stateIcED1Ev, symObjAddr: 0x2CAC0, symBinAddr: 0x2DF70, symSize: 0x10 }
  - { offsetInCU: 0x15596E, offset: 0x15596E, size: 0x8, addend: 0x0, symName: __ZNSt3__111__end_stateIcED0Ev, symObjAddr: 0x2CAD0, symBinAddr: 0x2DF80, symSize: 0x10 }
  - { offsetInCU: 0x15598F, offset: 0x15598F, size: 0x8, addend: 0x0, symName: __ZNKSt3__111__end_stateIcE6__execERNS_7__stateIcEE, symObjAddr: 0x2CAE0, symBinAddr: 0x2DF90, symSize: 0x10 }
  - { offsetInCU: 0x1559C5, offset: 0x1559C5, size: 0x8, addend: 0x0, symName: __ZNKSt3__16__nodeIcE12__exec_splitEbRNS_7__stateIcEE, symObjAddr: 0x2CAF0, symBinAddr: 0x2DFA0, symSize: 0x10 }
  - { offsetInCU: 0x155A0C, offset: 0x155A0C, size: 0x8, addend: 0x0, symName: __ZNKSt3__16__nodeIcE6__execERNS_7__stateIcEE, symObjAddr: 0x2CB00, symBinAddr: 0x2DFB0, symSize: 0x10 }
  - { offsetInCU: 0x155A58, offset: 0x155A58, size: 0x8, addend: 0x0, symName: __ZNSt3__120__shared_ptr_pointerIPNS_13__empty_stateIcEENS_10shared_ptrIS2_E27__shared_ptr_default_deleteIS2_S2_EENS_9allocatorIS2_EEED1Ev, symObjAddr: 0x2CB10, symBinAddr: 0x2DFC0, symSize: 0x10 }
  - { offsetInCU: 0x155AB3, offset: 0x155AB3, size: 0x8, addend: 0x0, symName: __ZNSt3__120__shared_ptr_pointerIPNS_13__empty_stateIcEENS_10shared_ptrIS2_E27__shared_ptr_default_deleteIS2_S2_EENS_9allocatorIS2_EEED0Ev, symObjAddr: 0x2CB20, symBinAddr: 0x2DFD0, symSize: 0x20 }
  - { offsetInCU: 0x155B1C, offset: 0x155B1C, size: 0x8, addend: 0x0, symName: __ZNSt3__120__shared_ptr_pointerIPNS_13__empty_stateIcEENS_10shared_ptrIS2_E27__shared_ptr_default_deleteIS2_S2_EENS_9allocatorIS2_EEE16__on_zero_sharedEv, symObjAddr: 0x2CB40, symBinAddr: 0x2DFF0, symSize: 0x20 }
  - { offsetInCU: 0x155BB8, offset: 0x155BB8, size: 0x8, addend: 0x0, symName: __ZNKSt3__120__shared_ptr_pointerIPNS_13__empty_stateIcEENS_10shared_ptrIS2_E27__shared_ptr_default_deleteIS2_S2_EENS_9allocatorIS2_EEE13__get_deleterERKSt9type_info, symObjAddr: 0x2CB60, symBinAddr: 0x2E010, symSize: 0x20 }
  - { offsetInCU: 0x155C86, offset: 0x155C86, size: 0x8, addend: 0x0, symName: __ZNSt3__120__shared_ptr_pointerIPNS_13__empty_stateIcEENS_10shared_ptrIS2_E27__shared_ptr_default_deleteIS2_S2_EENS_9allocatorIS2_EEE21__on_zero_shared_weakEv, symObjAddr: 0x2CB80, symBinAddr: 0x2E030, symSize: 0x10 }
  - { offsetInCU: 0x155D66, offset: 0x155D66, size: 0x8, addend: 0x0, symName: __ZNSt3__113__empty_stateIcED1Ev, symObjAddr: 0x2CB90, symBinAddr: 0x2E040, symSize: 0x30 }
  - { offsetInCU: 0x155DD7, offset: 0x155DD7, size: 0x8, addend: 0x0, symName: __ZNSt3__113__empty_stateIcED0Ev, symObjAddr: 0x2CBC0, symBinAddr: 0x2E070, symSize: 0x40 }
  - { offsetInCU: 0x155E85, offset: 0x155E85, size: 0x8, addend: 0x0, symName: __ZNKSt3__113__empty_stateIcE6__execERNS_7__stateIcEE, symObjAddr: 0x2CC00, symBinAddr: 0x2E0B0, symSize: 0x20 }
  - { offsetInCU: 0x155EDA, offset: 0x155EDA, size: 0x8, addend: 0x0, symName: __ZNSt3__116__owns_one_stateIcED1Ev, symObjAddr: 0x2CC20, symBinAddr: 0x2E0D0, symSize: 0x30 }
  - { offsetInCU: 0x155F46, offset: 0x155F46, size: 0x8, addend: 0x0, symName: __ZNSt3__116__owns_one_stateIcED0Ev, symObjAddr: 0x2CC50, symBinAddr: 0x2E100, symSize: 0x40 }
  - { offsetInCU: 0x1560C2, offset: 0x1560C2, size: 0x8, addend: 0x0, symName: __ZNSt3__111basic_regexIcNS_12regex_traitsIcEEEC1B8ue170006Ev, symObjAddr: 0x2D5E0, symBinAddr: 0x2EA90, symSize: 0x60 }
  - { offsetInCU: 0x156195, offset: 0x156195, size: 0x8, addend: 0x0, symName: __ZNSt3__111basic_regexIcNS_12regex_traitsIcEEE16__push_lookaheadERKS3_bj, symObjAddr: 0x2D640, symBinAddr: 0x2EAF0, symSize: 0xC0 }
  - { offsetInCU: 0x1565C1, offset: 0x1565C1, size: 0x8, addend: 0x0, symName: __ZNSt3__111basic_regexIcNS_12regex_traitsIcEEE26__parse_bracket_expressionINS_11__wrap_iterIPKcEEEET_S9_S9_, symObjAddr: 0x2EE40, symBinAddr: 0x302F0, symSize: 0x140 }
  - { offsetInCU: 0x1568FE, offset: 0x1568FE, size: 0x8, addend: 0x0, symName: __ZNSt3__111basic_regexIcNS_12regex_traitsIcEEE19__parse_atom_escapeINS_11__wrap_iterIPKcEEEET_S9_S9_, symObjAddr: 0x2ED30, symBinAddr: 0x301E0, symSize: 0x110 }
  - { offsetInCU: 0x156BD3, offset: 0x156BD3, size: 0x8, addend: 0x0, symName: __ZNSt3__111basic_regexIcNS_12regex_traitsIcEEE25__parse_pattern_characterINS_11__wrap_iterIPKcEEEET_S9_S9_, symObjAddr: 0x2EFD0, symBinAddr: 0x30480, symSize: 0x1B0 }
  - { offsetInCU: 0x156DDC, offset: 0x156DDC, size: 0x8, addend: 0x0, symName: __ZNSt3__111basic_regexIcNS_12regex_traitsIcEEE11__push_loopEmmPNS_16__owns_one_stateIcEEmmb, symObjAddr: 0x34CE0, symBinAddr: 0x36190, symSize: 0x150 }
  - { offsetInCU: 0x157417, offset: 0x157417, size: 0x8, addend: 0x0, symName: __ZNSt3__120__l_anchor_multilineIcED1Ev, symObjAddr: 0x2D750, symBinAddr: 0x2EC00, symSize: 0x30 }
  - { offsetInCU: 0x1574A5, offset: 0x1574A5, size: 0x8, addend: 0x0, symName: __ZNSt3__120__l_anchor_multilineIcED0Ev, symObjAddr: 0x2D780, symBinAddr: 0x2EC30, symSize: 0x40 }
  - { offsetInCU: 0x157542, offset: 0x157542, size: 0x8, addend: 0x0, symName: __ZNKSt3__120__l_anchor_multilineIcE6__execERNS_7__stateIcEE, symObjAddr: 0x2D7C0, symBinAddr: 0x2EC70, symSize: 0x60 }
  - { offsetInCU: 0x157595, offset: 0x157595, size: 0x8, addend: 0x0, symName: __ZNSt3__120__r_anchor_multilineIcED1Ev, symObjAddr: 0x2D820, symBinAddr: 0x2ECD0, symSize: 0x30 }
  - { offsetInCU: 0x157623, offset: 0x157623, size: 0x8, addend: 0x0, symName: __ZNSt3__120__r_anchor_multilineIcED0Ev, symObjAddr: 0x2D850, symBinAddr: 0x2ED00, symSize: 0x40 }
  - { offsetInCU: 0x1576C0, offset: 0x1576C0, size: 0x8, addend: 0x0, symName: __ZNKSt3__120__r_anchor_multilineIcE6__execERNS_7__stateIcEE, symObjAddr: 0x2D890, symBinAddr: 0x2ED40, symSize: 0x50 }
  - { offsetInCU: 0x157713, offset: 0x157713, size: 0x8, addend: 0x0, symName: __ZNSt3__115__word_boundaryIcNS_12regex_traitsIcEEED1Ev, symObjAddr: 0x2D8E0, symBinAddr: 0x2ED90, symSize: 0x50 }
  - { offsetInCU: 0x1577DF, offset: 0x1577DF, size: 0x8, addend: 0x0, symName: __ZNSt3__115__word_boundaryIcNS_12regex_traitsIcEEED0Ev, symObjAddr: 0x2D930, symBinAddr: 0x2EDE0, symSize: 0x50 }
  - { offsetInCU: 0x157934, offset: 0x157934, size: 0x8, addend: 0x0, symName: __ZNKSt3__115__word_boundaryIcNS_12regex_traitsIcEEE6__execERNS_7__stateIcEE, symObjAddr: 0x2D980, symBinAddr: 0x2EE30, symSize: 0x110 }
  - { offsetInCU: 0x157B02, offset: 0x157B02, size: 0x8, addend: 0x0, symName: __ZNSt3__111__lookaheadIcNS_12regex_traitsIcEEED1Ev, symObjAddr: 0x2DA90, symBinAddr: 0x2EF40, symSize: 0x90 }
  - { offsetInCU: 0x157CBF, offset: 0x157CBF, size: 0x8, addend: 0x0, symName: __ZNSt3__111__lookaheadIcNS_12regex_traitsIcEEED0Ev, symObjAddr: 0x2DB20, symBinAddr: 0x2EFD0, symSize: 0x90 }
  - { offsetInCU: 0x157F57, offset: 0x157F57, size: 0x8, addend: 0x0, symName: __ZNKSt3__111__lookaheadIcNS_12regex_traitsIcEEE6__execERNS_7__stateIcEE, symObjAddr: 0x2DBB0, symBinAddr: 0x2F060, symSize: 0x190 }
  - { offsetInCU: 0x158521, offset: 0x158521, size: 0x8, addend: 0x0, symName: __ZNSt3__16vectorINS_9sub_matchIPKcEENS_9allocatorIS4_EEE6assignEmRKS4_, symObjAddr: 0x2E260, symBinAddr: 0x2F710, symSize: 0x230 }
  - { offsetInCU: 0x158BCC, offset: 0x158BCC, size: 0x8, addend: 0x0, symName: __ZNKSt3__111basic_regexIcNS_12regex_traitsIcEEE21__match_at_start_ecmaINS_9allocatorINS_9sub_matchIPKcEEEEEEbS8_S8_RNS_13match_resultsIS8_T_EENS_15regex_constants15match_flag_typeEb, symObjAddr: 0x2DD40, symBinAddr: 0x2F1F0, symSize: 0x520 }
  - { offsetInCU: 0x15A499, offset: 0x15A499, size: 0x8, addend: 0x0, symName: __ZNSt3__16vectorINS_7__stateIcEENS_9allocatorIS2_EEE21__push_back_slow_pathIS2_EEvOT_, symObjAddr: 0x2E600, symBinAddr: 0x2FAB0, symSize: 0x230 }
  - { offsetInCU: 0x15AEFF, offset: 0x15AEFF, size: 0x8, addend: 0x0, symName: __ZNKSt3__16vectorINS_7__stateIcEENS_9allocatorIS2_EEE20__throw_length_errorB8ue170006Ev, symObjAddr: 0x2E830, symBinAddr: 0x2FCE0, symSize: 0x10 }
  - { offsetInCU: 0x15AF13, offset: 0x15AF13, size: 0x8, addend: 0x0, symName: __ZNSt3__16vectorINS_9sub_matchIPKcEENS_9allocatorIS4_EEE8__appendEmRKS4_, symObjAddr: 0x2E840, symBinAddr: 0x2FCF0, symSize: 0x1C0 }
  - { offsetInCU: 0x15B52E, offset: 0x15B52E, size: 0x8, addend: 0x0, symName: __ZNSt3__16vectorINS_4pairImPKcEENS_9allocatorIS4_EEE8__appendEm, symObjAddr: 0x2EA00, symBinAddr: 0x2FEB0, symSize: 0x150 }
  - { offsetInCU: 0x15BB03, offset: 0x15BB03, size: 0x8, addend: 0x0, symName: __ZNSt3__17__stateIcEC2ERKS1_, symObjAddr: 0x2EB60, symBinAddr: 0x30010, symSize: 0x1D0 }
  - { offsetInCU: 0x15C239, offset: 0x15C239, size: 0x8, addend: 0x0, symName: __ZNSt3__17__stateIcED1Ev, symObjAddr: 0x2E4A0, symBinAddr: 0x2F950, symSize: 0x40 }
  - { offsetInCU: 0x15C52D, offset: 0x15C52D, size: 0x8, addend: 0x0, symName: __ZNSt3__16vectorINS_7__stateIcEENS_9allocatorIS2_EEED1B8ue170006Ev, symObjAddr: 0x2E580, symBinAddr: 0x2FA30, symSize: 0x80 }
  - { offsetInCU: 0x15CC9C, offset: 0x15CC9C, size: 0x8, addend: 0x0, symName: __ZNKSt3__16vectorINS_9sub_matchIPKcEENS_9allocatorIS4_EEE20__throw_length_errorB8ue170006Ev, symObjAddr: 0x2E490, symBinAddr: 0x2F940, symSize: 0x10 }
  - { offsetInCU: 0x15CCC6, offset: 0x15CCC6, size: 0x8, addend: 0x0, symName: __ZNSt3__17__stateIcED1Ev, symObjAddr: 0x2E4A0, symBinAddr: 0x2F950, symSize: 0x40 }
  - { offsetInCU: 0x15CF10, offset: 0x15CF10, size: 0x8, addend: 0x0, symName: __ZNKSt3__16vectorINS_7__stateIcEENS_9allocatorIS2_EEE20__throw_length_errorB8ue170006Ev, symObjAddr: 0x2E830, symBinAddr: 0x2FCE0, symSize: 0x10 }
  - { offsetInCU: 0x15CF3A, offset: 0x15CF3A, size: 0x8, addend: 0x0, symName: __ZNSt3__16vectorINS_9sub_matchIPKcEENS_9allocatorIS4_EEE8__appendEmRKS4_, symObjAddr: 0x2E840, symBinAddr: 0x2FCF0, symSize: 0x1C0 }
  - { offsetInCU: 0x15D5A7, offset: 0x15D5A7, size: 0x8, addend: 0x0, symName: __ZNKSt3__16vectorINS_4pairImPKcEENS_9allocatorIS4_EEE20__throw_length_errorB8ue170006Ev, symObjAddr: 0x2EB50, symBinAddr: 0x30000, symSize: 0x10 }
  - { offsetInCU: 0x15D5D1, offset: 0x15D5D1, size: 0x8, addend: 0x0, symName: __ZNSt3__17__stateIcEC2ERKS1_, symObjAddr: 0x2EB60, symBinAddr: 0x30010, symSize: 0x1D0 }
  - { offsetInCU: 0x15DA16, offset: 0x15DA16, size: 0x8, addend: 0x0, symName: __ZNSt3__111basic_regexIcNS_12regex_traitsIcEEE11__push_charEc, symObjAddr: 0x2F8D0, symBinAddr: 0x30D80, symSize: 0x140 }
  - { offsetInCU: 0x15DDFE, offset: 0x15DDFE, size: 0x8, addend: 0x0, symName: __ZNSt3__111basic_regexIcNS_12regex_traitsIcEEE15__push_back_refEi, symObjAddr: 0x2FA60, symBinAddr: 0x30F10, symSize: 0xD0 }
  - { offsetInCU: 0x15E083, offset: 0x15E083, size: 0x8, addend: 0x0, symName: __ZNSt3__111basic_regexIcNS_12regex_traitsIcEEE30__parse_character_class_escapeINS_11__wrap_iterIPKcEEEET_S9_S9_, symObjAddr: 0x2F240, symBinAddr: 0x306F0, symSize: 0x2E0 }
  - { offsetInCU: 0x15E642, offset: 0x15E642, size: 0x8, addend: 0x0, symName: __ZNSt3__111basic_regexIcNS_12regex_traitsIcEEE24__parse_character_escapeINS_11__wrap_iterIPKcEEEET_S9_S9_PNS_12basic_stringIcNS_11char_traitsIcEENS_9allocatorIcEEEE, symObjAddr: 0x2F520, symBinAddr: 0x309D0, symSize: 0x3B0 }
  - { offsetInCU: 0x15ED19, offset: 0x15ED19, size: 0x8, addend: 0x0, symName: __ZNSt3__120__bracket_expressionIcNS_12regex_traitsIcEEEC2B8ue170006ERKS2_PNS_6__nodeIcEEbbb, symObjAddr: 0x30A20, symBinAddr: 0x31ED0, symSize: 0x1A0 }
  - { offsetInCU: 0x15F552, offset: 0x15F552, size: 0x8, addend: 0x0, symName: __ZNSt3__120__bracket_expressionIcNS_12regex_traitsIcEEE10__add_charB8ue170006Ec, symObjAddr: 0x30150, symBinAddr: 0x31600, symSize: 0x8D0 }
  - { offsetInCU: 0x1602AD, offset: 0x1602AD, size: 0x8, addend: 0x0, symName: __ZNSt3__111basic_regexIcNS_12regex_traitsIcEEE23__parse_expression_termINS_11__wrap_iterIPKcEEEET_S9_S9_PNS_20__bracket_expressionIcS2_EE, symObjAddr: 0x32010, symBinAddr: 0x334C0, symSize: 0x450 }
  - { offsetInCU: 0x1613CD, offset: 0x1613CD, size: 0x8, addend: 0x0, symName: __ZNSt3__123__match_any_but_newlineIcED1Ev, symObjAddr: 0x2F180, symBinAddr: 0x30630, symSize: 0x30 }
  - { offsetInCU: 0x16145B, offset: 0x16145B, size: 0x8, addend: 0x0, symName: __ZNSt3__123__match_any_but_newlineIcED0Ev, symObjAddr: 0x2F1B0, symBinAddr: 0x30660, symSize: 0x40 }
  - { offsetInCU: 0x1618FB, offset: 0x1618FB, size: 0x8, addend: 0x0, symName: __ZNSt3__118__match_char_icaseIcNS_12regex_traitsIcEEED1Ev, symObjAddr: 0x2FB30, symBinAddr: 0x30FE0, symSize: 0x50 }
  - { offsetInCU: 0x1619C7, offset: 0x1619C7, size: 0x8, addend: 0x0, symName: __ZNSt3__118__match_char_icaseIcNS_12regex_traitsIcEEED0Ev, symObjAddr: 0x2FB80, symBinAddr: 0x31030, symSize: 0x50 }
  - { offsetInCU: 0x161AA0, offset: 0x161AA0, size: 0x8, addend: 0x0, symName: __ZNKSt3__118__match_char_icaseIcNS_12regex_traitsIcEEE6__execERNS_7__stateIcEE, symObjAddr: 0x2FBD0, symBinAddr: 0x31080, symSize: 0x50 }
  - { offsetInCU: 0x161B62, offset: 0x161B62, size: 0x8, addend: 0x0, symName: __ZNSt3__120__match_char_collateIcNS_12regex_traitsIcEEED1Ev, symObjAddr: 0x2FC20, symBinAddr: 0x310D0, symSize: 0x50 }
  - { offsetInCU: 0x161C2E, offset: 0x161C2E, size: 0x8, addend: 0x0, symName: __ZNSt3__120__match_char_collateIcNS_12regex_traitsIcEEED0Ev, symObjAddr: 0x2FC70, symBinAddr: 0x31120, symSize: 0x50 }
  - { offsetInCU: 0x161D07, offset: 0x161D07, size: 0x8, addend: 0x0, symName: __ZNKSt3__120__match_char_collateIcNS_12regex_traitsIcEEE6__execERNS_7__stateIcEE, symObjAddr: 0x2FCC0, symBinAddr: 0x31170, symSize: 0x40 }
  - { offsetInCU: 0x161D79, offset: 0x161D79, size: 0x8, addend: 0x0, symName: __ZNSt3__112__match_charIcED1Ev, symObjAddr: 0x2FD00, symBinAddr: 0x311B0, symSize: 0x30 }
  - { offsetInCU: 0x161E07, offset: 0x161E07, size: 0x8, addend: 0x0, symName: __ZNSt3__112__match_charIcED0Ev, symObjAddr: 0x2FD30, symBinAddr: 0x311E0, symSize: 0x40 }
  - { offsetInCU: 0x161EA4, offset: 0x161EA4, size: 0x8, addend: 0x0, symName: __ZNKSt3__112__match_charIcE6__execERNS_7__stateIcEE, symObjAddr: 0x2FD70, symBinAddr: 0x31220, symSize: 0x40 }
  - { offsetInCU: 0x161F16, offset: 0x161F16, size: 0x8, addend: 0x0, symName: __ZNSt3__116__back_ref_icaseIcNS_12regex_traitsIcEEED1Ev, symObjAddr: 0x2FDB0, symBinAddr: 0x31260, symSize: 0x50 }
  - { offsetInCU: 0x161FE2, offset: 0x161FE2, size: 0x8, addend: 0x0, symName: __ZNSt3__116__back_ref_icaseIcNS_12regex_traitsIcEEED0Ev, symObjAddr: 0x2FE00, symBinAddr: 0x312B0, symSize: 0x50 }
  - { offsetInCU: 0x1620BB, offset: 0x1620BB, size: 0x8, addend: 0x0, symName: __ZNKSt3__116__back_ref_icaseIcNS_12regex_traitsIcEEE6__execERNS_7__stateIcEE, symObjAddr: 0x2FE50, symBinAddr: 0x31300, symSize: 0xD0 }
  - { offsetInCU: 0x16223D, offset: 0x16223D, size: 0x8, addend: 0x0, symName: __ZNSt3__118__back_ref_collateIcNS_12regex_traitsIcEEED1Ev, symObjAddr: 0x2FF20, symBinAddr: 0x313D0, symSize: 0x50 }
  - { offsetInCU: 0x162309, offset: 0x162309, size: 0x8, addend: 0x0, symName: __ZNSt3__118__back_ref_collateIcNS_12regex_traitsIcEEED0Ev, symObjAddr: 0x2FF70, symBinAddr: 0x31420, symSize: 0x50 }
  - { offsetInCU: 0x1623E2, offset: 0x1623E2, size: 0x8, addend: 0x0, symName: __ZNKSt3__118__back_ref_collateIcNS_12regex_traitsIcEEE6__execERNS_7__stateIcEE, symObjAddr: 0x2FFC0, symBinAddr: 0x31470, symSize: 0x80 }
  - { offsetInCU: 0x1624C6, offset: 0x1624C6, size: 0x8, addend: 0x0, symName: __ZNSt3__110__back_refIcED1Ev, symObjAddr: 0x30040, symBinAddr: 0x314F0, symSize: 0x30 }
  - { offsetInCU: 0x162554, offset: 0x162554, size: 0x8, addend: 0x0, symName: __ZNSt3__110__back_refIcED0Ev, symObjAddr: 0x30070, symBinAddr: 0x31520, symSize: 0x40 }
  - { offsetInCU: 0x1625F7, offset: 0x1625F7, size: 0x8, addend: 0x0, symName: __ZNKSt3__110__back_refIcE6__execERNS_7__stateIcEE, symObjAddr: 0x300B0, symBinAddr: 0x31560, symSize: 0xA0 }
  - { offsetInCU: 0x1629FD, offset: 0x1629FD, size: 0x8, addend: 0x0, symName: __ZNSt3__16vectorINS_4pairINS_12basic_stringIcNS_11char_traitsIcEENS_9allocatorIcEEEES7_EENS5_IS8_EEED1B8ue170006Ev, symObjAddr: 0x30BC0, symBinAddr: 0x32070, symSize: 0x90 }
  - { offsetInCU: 0x162F55, offset: 0x162F55, size: 0x8, addend: 0x0, symName: __ZNSt3__120__bracket_expressionIcNS_12regex_traitsIcEEED1Ev, symObjAddr: 0x30C50, symBinAddr: 0x32100, symSize: 0x10 }
  - { offsetInCU: 0x162F8D, offset: 0x162F8D, size: 0x8, addend: 0x0, symName: __ZNSt3__120__bracket_expressionIcNS_12regex_traitsIcEEED2Ev, symObjAddr: 0x319A0, symBinAddr: 0x32E50, symSize: 0x150 }
  - { offsetInCU: 0x163B28, offset: 0x163B28, size: 0x8, addend: 0x0, symName: __ZNSt3__120__bracket_expressionIcNS_12regex_traitsIcEEED0Ev, symObjAddr: 0x30C60, symBinAddr: 0x32110, symSize: 0x20 }
  - { offsetInCU: 0x163FAA, offset: 0x163FAA, size: 0x8, addend: 0x0, symName: __ZNKSt3__120__bracket_expressionIcNS_12regex_traitsIcEEE6__execERNS_7__stateIcEE, symObjAddr: 0x30C80, symBinAddr: 0x32130, symSize: 0xCE0 }
  - { offsetInCU: 0x165C4C, offset: 0x165C4C, size: 0x8, addend: 0x0, symName: __ZNKSt3__112regex_traitsIcE20__lookup_collatenameIPcEENS_12basic_stringIcNS_11char_traitsIcEENS_9allocatorIcEEEET_SA_c, symObjAddr: 0x31C00, symBinAddr: 0x330B0, symSize: 0x240 }
  - { offsetInCU: 0x16689F, offset: 0x16689F, size: 0x8, addend: 0x0, symName: __ZNKSt3__112regex_traitsIcE9transformIPcEENS_12basic_stringIcNS_11char_traitsIcEENS_9allocatorIcEEEET_SA_, symObjAddr: 0x31AF0, symBinAddr: 0x32FA0, symSize: 0x110 }
  - { offsetInCU: 0x166F0A, offset: 0x166F0A, size: 0x8, addend: 0x0, symName: __ZNKSt3__112regex_traitsIcE19__transform_primaryIPcEENS_12basic_stringIcNS_11char_traitsIcEENS_9allocatorIcEEEET_SA_c, symObjAddr: 0x31E40, symBinAddr: 0x332F0, symSize: 0x180 }
  - { offsetInCU: 0x1676B9, offset: 0x1676B9, size: 0x8, addend: 0x0, symName: __ZNSt3__14pairINS_12basic_stringIcNS_11char_traitsIcEENS_9allocatorIcEEEES6_ED1Ev, symObjAddr: 0x31960, symBinAddr: 0x32E10, symSize: 0x40 }
  - { offsetInCU: 0x1679A7, offset: 0x1679A7, size: 0x8, addend: 0x0, symName: __ZNSt3__111basic_regexIcNS_12regex_traitsIcEEE25__parse_equivalence_classINS_11__wrap_iterIPKcEEEET_S9_S9_PNS_20__bracket_expressionIcS2_EE, symObjAddr: 0x32460, symBinAddr: 0x33910, symSize: 0x2F0 }
  - { offsetInCU: 0x168A3B, offset: 0x168A3B, size: 0x8, addend: 0x0, symName: __ZNSt3__111basic_regexIcNS_12regex_traitsIcEEE18__parse_awk_escapeINS_11__wrap_iterIPKcEEEET_S9_S9_PNS_12basic_stringIcNS_11char_traitsIcEENS_9allocatorIcEEEE, symObjAddr: 0x32A60, symBinAddr: 0x33F10, symSize: 0x320 }
  - { offsetInCU: 0x168C4A, offset: 0x168C4A, size: 0x8, addend: 0x0, symName: __ZNSt3__111basic_regexIcNS_12regex_traitsIcEEE24__parse_collating_symbolINS_11__wrap_iterIPKcEEEET_S9_S9_RNS_12basic_stringIcNS_11char_traitsIcEENS_9allocatorIcEEEE, symObjAddr: 0x327F0, symBinAddr: 0x33CA0, symSize: 0xE0 }
  - { offsetInCU: 0x169137, offset: 0x169137, size: 0x8, addend: 0x0, symName: __ZNSt3__111basic_regexIcNS_12regex_traitsIcEEE23__parse_character_classINS_11__wrap_iterIPKcEEEET_S9_S9_PNS_20__bracket_expressionIcS2_EE, symObjAddr: 0x32750, symBinAddr: 0x33C00, symSize: 0xA0 }
  - { offsetInCU: 0x169502, offset: 0x169502, size: 0x8, addend: 0x0, symName: __ZNSt3__111basic_regexIcNS_12regex_traitsIcEEE20__parse_class_escapeINS_11__wrap_iterIPKcEEEET_S9_S9_RNS_12basic_stringIcNS_11char_traitsIcEENS_9allocatorIcEEEEPNS_20__bracket_expressionIcS2_EE, symObjAddr: 0x328D0, symBinAddr: 0x33D80, symSize: 0x190 }
  - { offsetInCU: 0x1696CA, offset: 0x1696CA, size: 0x8, addend: 0x0, symName: __ZNSt3__120__bracket_expressionIcNS_12regex_traitsIcEEE13__add_digraphB8ue170006Ecc, symObjAddr: 0x331A0, symBinAddr: 0x34650, symSize: 0x590 }
  - { offsetInCU: 0x16A166, offset: 0x16A166, size: 0x8, addend: 0x0, symName: __ZNSt3__119__throw_regex_errorB8ue170006ILNS_15regex_constants10error_typeE1EEEvv, symObjAddr: 0x33730, symBinAddr: 0x34BE0, symSize: 0x50 }
  - { offsetInCU: 0x16A171, offset: 0x16A171, size: 0x8, addend: 0x0, symName: __ZNSt3__120__bracket_expressionIcNS_12regex_traitsIcEEE11__add_rangeB8ue170006ENS_12basic_stringIcNS_11char_traitsIcEENS_9allocatorIcEEEES9_, symObjAddr: 0x32D80, symBinAddr: 0x34230, symSize: 0x420 }
  - { offsetInCU: 0x16BD35, offset: 0x16BD35, size: 0x8, addend: 0x0, symName: __ZNKSt3__112regex_traitsIcE20__lookup_collatenameINS_11__wrap_iterIPKcEEEENS_12basic_stringIcNS_11char_traitsIcEENS_9allocatorIcEEEET_SD_c, symObjAddr: 0x33780, symBinAddr: 0x34C30, symSize: 0x240 }
  - { offsetInCU: 0x16C9B9, offset: 0x16C9B9, size: 0x8, addend: 0x0, symName: __ZNKSt3__112regex_traitsIcE19__transform_primaryINS_11__wrap_iterIPcEEEENS_12basic_stringIcNS_11char_traitsIcEENS_9allocatorIcEEEET_SC_c, symObjAddr: 0x339C0, symBinAddr: 0x34E70, symSize: 0x180 }
  - { offsetInCU: 0x16D199, offset: 0x16D199, size: 0x8, addend: 0x0, symName: __ZNSt3__16vectorINS_12basic_stringIcNS_11char_traitsIcEENS_9allocatorIcEEEENS4_IS6_EEE21__push_back_slow_pathIRKS6_EEvOT_, symObjAddr: 0x33B40, symBinAddr: 0x34FF0, symSize: 0x230 }
  - { offsetInCU: 0x16DE14, offset: 0x16DE14, size: 0x8, addend: 0x0, symName: __ZNKSt3__112regex_traitsIcE18__lookup_classnameINS_11__wrap_iterIPKcEEEEjT_S7_bc, symObjAddr: 0x33E30, symBinAddr: 0x352E0, symSize: 0x130 }
  - { offsetInCU: 0x16E597, offset: 0x16E597, size: 0x8, addend: 0x0, symName: __ZNSt3__120__bracket_expressionIcNS_12regex_traitsIcEEE14__add_neg_charB8ue170006Ec, symObjAddr: 0x33F60, symBinAddr: 0x35410, symSize: 0x8D0 }
  - { offsetInCU: 0x16F52B, offset: 0x16F52B, size: 0x8, addend: 0x0, symName: __ZNKSt3__112regex_traitsIcE9transformINS_11__wrap_iterIPcEEEENS_12basic_stringIcNS_11char_traitsIcEENS_9allocatorIcEEEET_SC_, symObjAddr: 0x34830, symBinAddr: 0x35CE0, symSize: 0x110 }
  - { offsetInCU: 0x16FBEB, offset: 0x16FBEB, size: 0x8, addend: 0x0, symName: __ZNSt3__16vectorINS_4pairINS_12basic_stringIcNS_11char_traitsIcEENS_9allocatorIcEEEES7_EENS5_IS8_EEE21__push_back_slow_pathIS8_EEvOT_, symObjAddr: 0x34990, symBinAddr: 0x35E40, symSize: 0x1F0 }
  - { offsetInCU: 0x1708D6, offset: 0x1708D6, size: 0x8, addend: 0x0, symName: __ZNKSt3__16vectorINS_4pairIccEENS_9allocatorIS2_EEE20__throw_length_errorB8ue170006Ev, symObjAddr: 0x34B90, symBinAddr: 0x36040, symSize: 0x10 }
  - { offsetInCU: 0x170900, offset: 0x170900, size: 0x8, addend: 0x0, symName: __ZNSt3__128__begin_marked_subexpressionIcED1Ev, symObjAddr: 0x34BA0, symBinAddr: 0x36050, symSize: 0x30 }
  - { offsetInCU: 0x170B08, offset: 0x170B08, size: 0x8, addend: 0x0, symName: __ZNSt3__114__split_bufferINS_12basic_stringIcNS_11char_traitsIcEENS_9allocatorIcEEEERNS4_IS6_EEED1Ev, symObjAddr: 0x33D70, symBinAddr: 0x35220, symSize: 0x60 }
  - { offsetInCU: 0x171039, offset: 0x171039, size: 0x8, addend: 0x0, symName: __ZNKSt3__16vectorINS_4pairINS_12basic_stringIcNS_11char_traitsIcEENS_9allocatorIcEEEES7_EENS5_IS8_EEE20__throw_length_errorB8ue170006Ev, symObjAddr: 0x34B80, symBinAddr: 0x36030, symSize: 0x10 }
  - { offsetInCU: 0x171063, offset: 0x171063, size: 0x8, addend: 0x0, symName: __ZNKSt3__16vectorINS_4pairIccEENS_9allocatorIS2_EEE20__throw_length_errorB8ue170006Ev, symObjAddr: 0x34B90, symBinAddr: 0x36040, symSize: 0x10 }
  - { offsetInCU: 0x17108B, offset: 0x17108B, size: 0x8, addend: 0x0, symName: __ZNSt3__128__begin_marked_subexpressionIcED1Ev, symObjAddr: 0x34BA0, symBinAddr: 0x36050, symSize: 0x30 }
  - { offsetInCU: 0x171119, offset: 0x171119, size: 0x8, addend: 0x0, symName: __ZNSt3__128__begin_marked_subexpressionIcED0Ev, symObjAddr: 0x34BD0, symBinAddr: 0x36080, symSize: 0x40 }
  - { offsetInCU: 0x1711B6, offset: 0x1711B6, size: 0x8, addend: 0x0, symName: __ZNKSt3__128__begin_marked_subexpressionIcE6__execERNS_7__stateIcEE, symObjAddr: 0x34C10, symBinAddr: 0x360C0, symSize: 0x30 }
  - { offsetInCU: 0x171251, offset: 0x171251, size: 0x8, addend: 0x0, symName: __ZNSt3__126__end_marked_subexpressionIcED1Ev, symObjAddr: 0x34C40, symBinAddr: 0x360F0, symSize: 0x30 }
  - { offsetInCU: 0x1712DF, offset: 0x1712DF, size: 0x8, addend: 0x0, symName: __ZNSt3__126__end_marked_subexpressionIcED0Ev, symObjAddr: 0x34C70, symBinAddr: 0x36120, symSize: 0x40 }
  - { offsetInCU: 0x17137C, offset: 0x17137C, size: 0x8, addend: 0x0, symName: __ZNKSt3__126__end_marked_subexpressionIcE6__execERNS_7__stateIcEE, symObjAddr: 0x34CB0, symBinAddr: 0x36160, symSize: 0x30 }
  - { offsetInCU: 0x1716B2, offset: 0x1716B2, size: 0x8, addend: 0x0, symName: __ZNSt3__16__loopIcED0Ev, symObjAddr: 0x34F20, symBinAddr: 0x363D0, symSize: 0x60 }
  - { offsetInCU: 0x1717B3, offset: 0x1717B3, size: 0x8, addend: 0x0, symName: __ZNSt3__16__loopIcED1Ev, symObjAddr: 0x34ED0, symBinAddr: 0x36380, symSize: 0x50 }
  - { offsetInCU: 0x1718A6, offset: 0x1718A6, size: 0x8, addend: 0x0, symName: __ZNKSt3__16__loopIcE6__execERNS_7__stateIcEE, symObjAddr: 0x34F80, symBinAddr: 0x36430, symSize: 0x1D0 }
  - { offsetInCU: 0x171A7A, offset: 0x171A7A, size: 0x8, addend: 0x0, symName: __ZNKSt3__16__loopIcE12__exec_splitEbRNS_7__stateIcEE, symObjAddr: 0x35150, symBinAddr: 0x36600, symSize: 0xC0 }
  - { offsetInCU: 0x171B8F, offset: 0x171B8F, size: 0x8, addend: 0x0, symName: __ZNSt3__117__owns_two_statesIcED1Ev, symObjAddr: 0x35210, symBinAddr: 0x366C0, symSize: 0x50 }
  - { offsetInCU: 0x171C28, offset: 0x171C28, size: 0x8, addend: 0x0, symName: __ZNSt3__117__owns_two_statesIcED0Ev, symObjAddr: 0x35260, symBinAddr: 0x36710, symSize: 0x60 }
  - { offsetInCU: 0x171CCE, offset: 0x171CCE, size: 0x8, addend: 0x0, symName: __ZNSt3__117__repeat_one_loopIcED1Ev, symObjAddr: 0x352C0, symBinAddr: 0x36770, symSize: 0x10 }
  - { offsetInCU: 0x171CFA, offset: 0x171CFA, size: 0x8, addend: 0x0, symName: __ZNSt3__117__repeat_one_loopIcED0Ev, symObjAddr: 0x352D0, symBinAddr: 0x36780, symSize: 0x10 }
  - { offsetInCU: 0x171D26, offset: 0x171D26, size: 0x8, addend: 0x0, symName: __ZNKSt3__117__repeat_one_loopIcE6__execERNS_7__stateIcEE, symObjAddr: 0x352E0, symBinAddr: 0x36790, symSize: 0x20 }
  - { offsetInCU: 0x171D98, offset: 0x171D98, size: 0x8, addend: 0x0, symName: __ZNSt3__111__alternateIcED1Ev, symObjAddr: 0x35300, symBinAddr: 0x367B0, symSize: 0x50 }
  - { offsetInCU: 0x171E53, offset: 0x171E53, size: 0x8, addend: 0x0, symName: __ZNSt3__111__alternateIcED0Ev, symObjAddr: 0x35350, symBinAddr: 0x36800, symSize: 0x60 }
  - { offsetInCU: 0x171F1B, offset: 0x171F1B, size: 0x8, addend: 0x0, symName: __ZNKSt3__111__alternateIcE6__execERNS_7__stateIcEE, symObjAddr: 0x353B0, symBinAddr: 0x36860, symSize: 0x10 }
  - { offsetInCU: 0x171F51, offset: 0x171F51, size: 0x8, addend: 0x0, symName: __ZNKSt3__111__alternateIcE12__exec_splitEbRNS_7__stateIcEE, symObjAddr: 0x353C0, symBinAddr: 0x36870, symSize: 0x20 }
  - { offsetInCU: 0x171FA2, offset: 0x171FA2, size: 0x8, addend: 0x0, symName: __ZNSt3__121__empty_non_own_stateIcED1Ev, symObjAddr: 0x353E0, symBinAddr: 0x36890, symSize: 0x10 }
  - { offsetInCU: 0x171FCE, offset: 0x171FCE, size: 0x8, addend: 0x0, symName: __ZNSt3__121__empty_non_own_stateIcED0Ev, symObjAddr: 0x353F0, symBinAddr: 0x368A0, symSize: 0x10 }
  - { offsetInCU: 0x171FFA, offset: 0x171FFA, size: 0x8, addend: 0x0, symName: __ZNKSt3__121__empty_non_own_stateIcE6__execERNS_7__stateIcEE, symObjAddr: 0x35400, symBinAddr: 0x368B0, symSize: 0x20 }
  - { offsetInCU: 0x17215B, offset: 0x17215B, size: 0x8, addend: 0x0, symName: __ZNSt3__111basic_regexIcNS_12regex_traitsIcEEE32__parse_one_char_or_coll_elem_REINS_11__wrap_iterIPKcEEEET_S9_S9_, symObjAddr: 0x358A0, symBinAddr: 0x36D50, symSize: 0xF0 }
  - { offsetInCU: 0x1725E0, offset: 0x1725E0, size: 0x8, addend: 0x0, symName: __ZNSt3__111__match_anyIcED1Ev, symObjAddr: 0x35990, symBinAddr: 0x36E40, symSize: 0x30 }
  - { offsetInCU: 0x17266E, offset: 0x17266E, size: 0x8, addend: 0x0, symName: __ZNSt3__111__match_anyIcED0Ev, symObjAddr: 0x359C0, symBinAddr: 0x36E70, symSize: 0x40 }
  - { offsetInCU: 0x17270B, offset: 0x17270B, size: 0x8, addend: 0x0, symName: __ZNKSt3__111__match_anyIcE6__execERNS_7__stateIcEE, symObjAddr: 0x35A00, symBinAddr: 0x36EB0, symSize: 0x40 }
  - { offsetInCU: 0x172760, offset: 0x172760, size: 0x8, addend: 0x0, symName: __ZNSt3__111basic_regexIcNS_12regex_traitsIcEEE15__test_back_refEc, symObjAddr: 0x35A40, symBinAddr: 0x36EF0, symSize: 0x40 }
  - { offsetInCU: 0x17289A, offset: 0x17289A, size: 0x8, addend: 0x0, symName: __ZNSt3__111basic_regexIcNS_12regex_traitsIcEEE20__parse_ORD_CHAR_EREINS_11__wrap_iterIPKcEEEET_S9_S9_, symObjAddr: 0x35CE0, symBinAddr: 0x37190, symSize: 0x1B0 }
  - { offsetInCU: 0x172928, offset: 0x172928, size: 0x8, addend: 0x0, symName: __ZNSt3__111basic_regexIcNS_12regex_traitsIcEEE23__parse_QUOTED_CHAR_EREINS_11__wrap_iterIPKcEEEET_S9_S9_, symObjAddr: 0x35E90, symBinAddr: 0x37340, symSize: 0x1F0 }
  - { offsetInCU: 0x172B6A, offset: 0x172B6A, size: 0x8, addend: 0x0, symName: __ZNKSt3__111basic_regexIcNS_12regex_traitsIcEEE27__match_at_start_posix_subsINS_9allocatorINS_9sub_matchIPKcEEEEEEbS8_S8_RNS_13match_resultsIS8_T_EENS_15regex_constants15match_flag_typeEb, symObjAddr: 0x36FC0, symBinAddr: 0x38470, symSize: 0x6F0 }
  - { offsetInCU: 0x174A48, offset: 0x174A48, size: 0x8, addend: 0x0, symName: __ZNKSt3__111basic_regexIcNS_12regex_traitsIcEEE29__match_at_start_posix_nosubsINS_9allocatorINS_9sub_matchIPKcEEEEEEbS8_S8_RNS_13match_resultsIS8_T_EENS_15regex_constants15match_flag_typeEb, symObjAddr: 0x36510, symBinAddr: 0x379C0, symSize: 0xAB0 }
  - { offsetInCU: 0x176B59, offset: 0x176B59, size: 0x8, addend: 0x0, symName: __ZNSt3__16vectorINS_9sub_matchINS_11__wrap_iterIPKcEEEENS_9allocatorIS6_EEE8__appendEm, symObjAddr: 0x38F30, symBinAddr: 0x3A3E0, symSize: 0x1B0 }
  - { offsetInCU: 0x17767C, offset: 0x17767C, size: 0x8, addend: 0x0, symName: __ZNSt3__15dequeINS_7__stateIcEENS_9allocatorIS2_EEE19__add_back_capacityEv, symObjAddr: 0x37880, symBinAddr: 0x38D30, symSize: 0x850 }
  - { offsetInCU: 0x178F0E, offset: 0x178F0E, size: 0x8, addend: 0x0, symName: __ZNSt3__15dequeINS_7__stateIcEENS_9allocatorIS2_EEE20__add_front_capacityEv, symObjAddr: 0x38520, symBinAddr: 0x399D0, symSize: 0x440 }
  - { offsetInCU: 0x179E9E, offset: 0x179E9E, size: 0x8, addend: 0x0, symName: __ZNSt3__15dequeINS_7__stateIcEENS_9allocatorIS2_EEED1B8ue170006Ev, symObjAddr: 0x37810, symBinAddr: 0x38CC0, symSize: 0x70 }
  - { offsetInCU: 0x17A2DD, offset: 0x17A2DD, size: 0x8, addend: 0x0, symName: __ZNSt3__16vectorINS_9sub_matchIPKcEENS_9allocatorIS4_EEE18__assign_with_sizeB8ue170006IPS4_S9_EEvT_T0_l, symObjAddr: 0x38B80, symBinAddr: 0x3A030, symSize: 0x1F0 }
  - { offsetInCU: 0x17AC0B, offset: 0x17AC0B, size: 0x8, addend: 0x0, symName: __ZNSt3__16vectorINS_4pairImPKcEENS_9allocatorIS4_EEE18__assign_with_sizeB8ue170006IPS4_S9_EEvT_T0_l, symObjAddr: 0x38D70, symBinAddr: 0x3A220, symSize: 0x1C0 }
  - { offsetInCU: 0x17B4BF, offset: 0x17B4BF, size: 0x8, addend: 0x0, symName: __ZNSt3__15dequeINS_7__stateIcEENS_9allocatorIS2_EEE5clearEv, symObjAddr: 0x376B0, symBinAddr: 0x38B60, symSize: 0x160 }
  - { offsetInCU: 0x17C04B, offset: 0x17C04B, size: 0x8, addend: 0x0, symName: __ZNSt3__114__split_bufferIPNS_7__stateIcEENS_9allocatorIS3_EEE9push_backEOS3_, symObjAddr: 0x380D0, symBinAddr: 0x39580, symSize: 0x230 }
  - { offsetInCU: 0x17C556, offset: 0x17C556, size: 0x8, addend: 0x0, symName: __ZNSt3__114__split_bufferIPNS_7__stateIcEENS_9allocatorIS3_EEE10push_frontEOS3_, symObjAddr: 0x38300, symBinAddr: 0x397B0, symSize: 0x220 }
  - { offsetInCU: 0x17CAC8, offset: 0x17CAC8, size: 0x8, addend: 0x0, symName: __ZNSt3__114__split_bufferIPNS_7__stateIcEENS_9allocatorIS3_EEE10push_frontERKS3_, symObjAddr: 0x38960, symBinAddr: 0x39E10, symSize: 0x220 }
  - { offsetInCU: 0x17D4C2, offset: 0x17D4C2, size: 0x8, addend: 0x0, symName: __ZNKSt3__16vectorINS_9sub_matchINS_11__wrap_iterIPKcEEEENS_9allocatorIS6_EEE20__throw_length_errorB8ue170006Ev, symObjAddr: 0x390E0, symBinAddr: 0x3A590, symSize: 0x10 }
  - { offsetInCU: 0x17D4EC, offset: 0x17D4EC, size: 0x8, addend: 0x0, symName: __ZNKSt3__112basic_stringIcNS_11char_traitsIcEENS_9allocatorIcEEE20__throw_out_of_rangeB8ue170006Ev, symObjAddr: 0x390F0, symBinAddr: 0x3A5A0, symSize: 0x10 }
  - { offsetInCU: 0x17D553, offset: 0x17D553, size: 0x8, addend: 0x0, symName: '__ZZ38whisper_vad_init_from_file_with_paramsEN4$_118__invokeEPvS0_m', symObjAddr: 0x39220, symBinAddr: 0x3A6D0, symSize: 0x20 }
  - { offsetInCU: 0x17D613, offset: 0x17D613, size: 0x8, addend: 0x0, symName: '__ZZ38whisper_vad_init_from_file_with_paramsEN4$_128__invokeEPv', symObjAddr: 0x39240, symBinAddr: 0x3A6F0, symSize: 0x20 }
  - { offsetInCU: 0x17D6D2, offset: 0x17D6D2, size: 0x8, addend: 0x0, symName: '__ZZ38whisper_vad_init_from_file_with_paramsEN4$_138__invokeEPv', symObjAddr: 0x39260, symBinAddr: 0x3A710, symSize: 0x90 }
  - { offsetInCU: 0x17D86C, offset: 0x17D86C, size: 0x8, addend: 0x0, symName: '__ZNSt3__110__function6__funcIZL24whisper_vad_init_contextP19whisper_vad_contextE4$_20NS_9allocatorIS4_EEFP11ggml_cgraphvEED1Ev', symObjAddr: 0x39340, symBinAddr: 0x3A7F0, symSize: 0x10 }
  - { offsetInCU: 0x17D896, offset: 0x17D896, size: 0x8, addend: 0x0, symName: '__ZNSt3__110__function6__funcIZL24whisper_vad_init_contextP19whisper_vad_contextE4$_20NS_9allocatorIS4_EEFP11ggml_cgraphvEED0Ev', symObjAddr: 0x39350, symBinAddr: 0x3A800, symSize: 0x10 }
  - { offsetInCU: 0x17DAA7, offset: 0x17DAA7, size: 0x8, addend: 0x0, symName: '__ZNKSt3__110__function6__funcIZL24whisper_vad_init_contextP19whisper_vad_contextE4$_20NS_9allocatorIS4_EEFP11ggml_cgraphvEE7__cloneEv', symObjAddr: 0x39360, symBinAddr: 0x3A810, symSize: 0x30 }
  - { offsetInCU: 0x17DDAA, offset: 0x17DDAA, size: 0x8, addend: 0x0, symName: '__ZNKSt3__110__function6__funcIZL24whisper_vad_init_contextP19whisper_vad_contextE4$_20NS_9allocatorIS4_EEFP11ggml_cgraphvEE7__cloneEPNS0_6__baseIS9_EE', symObjAddr: 0x39390, symBinAddr: 0x3A840, symSize: 0x20 }
  - { offsetInCU: 0x17DEBF, offset: 0x17DEBF, size: 0x8, addend: 0x0, symName: '__ZNSt3__110__function6__funcIZL24whisper_vad_init_contextP19whisper_vad_contextE4$_20NS_9allocatorIS4_EEFP11ggml_cgraphvEE7destroyEv', symObjAddr: 0x393B0, symBinAddr: 0x3A860, symSize: 0x10 }
  - { offsetInCU: 0x17DF12, offset: 0x17DF12, size: 0x8, addend: 0x0, symName: '__ZNSt3__110__function6__funcIZL24whisper_vad_init_contextP19whisper_vad_contextE4$_20NS_9allocatorIS4_EEFP11ggml_cgraphvEE18destroy_deallocateEv', symObjAddr: 0x393C0, symBinAddr: 0x3A870, symSize: 0x10 }
  - { offsetInCU: 0x17E041, offset: 0x17E041, size: 0x8, addend: 0x0, symName: '__ZNSt3__110__function6__funcIZL24whisper_vad_init_contextP19whisper_vad_contextE4$_20NS_9allocatorIS4_EEFP11ggml_cgraphvEEclEv', symObjAddr: 0x393D0, symBinAddr: 0x3A880, symSize: 0x20 }
  - { offsetInCU: 0x17E0D2, offset: 0x17E0D2, size: 0x8, addend: 0x0, symName: '__ZNKSt3__110__function6__funcIZL24whisper_vad_init_contextP19whisper_vad_contextE4$_20NS_9allocatorIS4_EEFP11ggml_cgraphvEE6targetERKSt9type_info', symObjAddr: 0x393F0, symBinAddr: 0x3A8A0, symSize: 0x20 }
  - { offsetInCU: 0x17E148, offset: 0x17E148, size: 0x8, addend: 0x0, symName: '__ZNKSt3__110__function6__funcIZL24whisper_vad_init_contextP19whisper_vad_contextE4$_20NS_9allocatorIS4_EEFP11ggml_cgraphvEE11target_typeEv', symObjAddr: 0x39410, symBinAddr: 0x3A8C0, symSize: 0x10 }
  - { offsetInCU: 0x17E587, offset: 0x17E587, size: 0x8, addend: 0x0, symName: __ZNSt3__16vectorINS0_IPK23whisper_grammar_elementNS_9allocatorIS3_EEEENS4_IS6_EEE24__emplace_back_slow_pathIJEEEvDpOT_, symObjAddr: 0x39C20, symBinAddr: 0x3B0D0, symSize: 0x190 }
  - { offsetInCU: 0x17ECAE, offset: 0x17ECAE, size: 0x8, addend: 0x0, symName: __ZNSt3__16vectorINS0_IPK23whisper_grammar_elementNS_9allocatorIS3_EEEENS4_IS6_EEE21__push_back_slow_pathIRKS6_EEvOT_, symObjAddr: 0x39E20, symBinAddr: 0x3B2D0, symSize: 0x280 }
  - { offsetInCU: 0x17F951, offset: 0x17F951, size: 0x8, addend: 0x0, symName: __ZL29whisper_grammar_advance_stackRKNSt3__16vectorINS0_I23whisper_grammar_elementNS_9allocatorIS1_EEEENS2_IS4_EEEERKNS0_IPKS1_NS2_ISA_EEEERNS0_ISC_NS2_ISC_EEEE.cold.1, symObjAddr: 0x4A940, symBinAddr: 0x15FF00, symSize: 0x30 }
  - { offsetInCU: 0x17FC3D, offset: 0x17FC3D, size: 0x8, addend: 0x0, symName: __ZNSt3__114__split_bufferINS_6vectorIPK23whisper_grammar_elementNS_9allocatorIS4_EEEERNS5_IS7_EEED1Ev, symObjAddr: 0x39DB0, symBinAddr: 0x3B260, symSize: 0x60 }
  - { offsetInCU: 0x180064, offset: 0x180064, size: 0x8, addend: 0x0, symName: __ZNSt3__111basic_regexIcNS_12regex_traitsIcEEE7__parseIPKcEET_S7_S7_, symObjAddr: 0x3A260, symBinAddr: 0x3B710, symSize: 0x330 }
  - { offsetInCU: 0x180B1E, offset: 0x180B1E, size: 0x8, addend: 0x0, symName: __ZNSt3__111basic_regexIcNS_12regex_traitsIcEEE13__parse_egrepIPKcEET_S7_S7_, symObjAddr: 0x3AC20, symBinAddr: 0x3C0D0, symSize: 0x1E0 }
  - { offsetInCU: 0x1810F9, offset: 0x1810F9, size: 0x8, addend: 0x0, symName: __ZNSt3__111basic_regexIcNS_12regex_traitsIcEEE24__parse_extended_reg_expIPKcEET_S7_S7_, symObjAddr: 0x3A8B0, symBinAddr: 0x3BD60, symSize: 0x190 }
  - { offsetInCU: 0x1814C1, offset: 0x1814C1, size: 0x8, addend: 0x0, symName: __ZNSt3__111basic_regexIcNS_12regex_traitsIcEEE19__parse_alternativeIPKcEET_S7_S7_, symObjAddr: 0x3AE00, symBinAddr: 0x3C2B0, symSize: 0x90 }
  - { offsetInCU: 0x1815CF, offset: 0x1815CF, size: 0x8, addend: 0x0, symName: __ZNSt3__111basic_regexIcNS_12regex_traitsIcEEE21__parse_basic_reg_expIPKcEET_S7_S7_, symObjAddr: 0x3A760, symBinAddr: 0x3BC10, symSize: 0x150 }
  - { offsetInCU: 0x18192D, offset: 0x18192D, size: 0x8, addend: 0x0, symName: __ZNSt3__111basic_regexIcNS_12regex_traitsIcEEE12__parse_grepIPKcEET_S7_S7_, symObjAddr: 0x3AA40, symBinAddr: 0x3BEF0, symSize: 0x1E0 }
  - { offsetInCU: 0x181F51, offset: 0x181F51, size: 0x8, addend: 0x0, symName: __ZNSt3__111basic_regexIcNS_12regex_traitsIcEEE16__parse_ecma_expIPKcEET_S7_S7_, symObjAddr: 0x3A590, symBinAddr: 0x3BA40, symSize: 0x1D0 }
  - { offsetInCU: 0x18241A, offset: 0x18241A, size: 0x8, addend: 0x0, symName: __ZNSt3__111basic_regexIcNS_12regex_traitsIcEEE12__parse_termIPKcEET_S7_S7_, symObjAddr: 0x3AE90, symBinAddr: 0x3C340, symSize: 0x80 }
  - { offsetInCU: 0x1825A0, offset: 0x1825A0, size: 0x8, addend: 0x0, symName: __ZNSt3__111basic_regexIcNS_12regex_traitsIcEEE18__parse_nondupl_REIPKcEET_S7_S7_, symObjAddr: 0x3D350, symBinAddr: 0x3E800, symSize: 0x1D0 }
  - { offsetInCU: 0x182B1E, offset: 0x182B1E, size: 0x8, addend: 0x0, symName: __ZNSt3__111basic_regexIcNS_12regex_traitsIcEEE22__parse_RE_dupl_symbolIPKcEET_S7_S7_PNS_16__owns_one_stateIcEEjj, symObjAddr: 0x3D520, symBinAddr: 0x3E9D0, symSize: 0x260 }
  - { offsetInCU: 0x183169, offset: 0x183169, size: 0x8, addend: 0x0, symName: __ZNSt3__111basic_regexIcNS_12regex_traitsIcEEE32__parse_one_char_or_coll_elem_REIPKcEET_S7_S7_, symObjAddr: 0x3D780, symBinAddr: 0x3EC30, symSize: 0xF0 }
  - { offsetInCU: 0x1831C3, offset: 0x1831C3, size: 0x8, addend: 0x0, symName: __ZNSt3__111basic_regexIcNS_12regex_traitsIcEEE22__parse_ERE_expressionIPKcEET_S7_S7_, symObjAddr: 0x3D870, symBinAddr: 0x3ED20, symSize: 0x260 }
  - { offsetInCU: 0x183735, offset: 0x183735, size: 0x8, addend: 0x0, symName: __ZNSt3__111basic_regexIcNS_12regex_traitsIcEEE23__parse_ERE_dupl_symbolIPKcEET_S7_S7_PNS_16__owns_one_stateIcEEjj, symObjAddr: 0x3B4C0, symBinAddr: 0x3C970, symSize: 0x3B0 }
  - { offsetInCU: 0x183CD2, offset: 0x183CD2, size: 0x8, addend: 0x0, symName: __ZNSt3__111basic_regexIcNS_12regex_traitsIcEEE17__parse_assertionIPKcEET_S7_S7_, symObjAddr: 0x3AF10, symBinAddr: 0x3C3C0, symSize: 0x2C0 }
  - { offsetInCU: 0x1842F4, offset: 0x1842F4, size: 0x8, addend: 0x0, symName: __ZNSt3__111basic_regexIcNS_12regex_traitsIcEEE12__parse_atomIPKcEET_S7_S7_, symObjAddr: 0x3B1D0, symBinAddr: 0x3C680, symSize: 0x2F0 }
  - { offsetInCU: 0x184716, offset: 0x184716, size: 0x8, addend: 0x0, symName: __ZNSt3__111basic_regexIcNS_12regex_traitsIcEEE26__parse_bracket_expressionIPKcEET_S7_S7_, symObjAddr: 0x3B980, symBinAddr: 0x3CE30, symSize: 0x140 }
  - { offsetInCU: 0x184935, offset: 0x184935, size: 0x8, addend: 0x0, symName: __ZNSt3__111basic_regexIcNS_12regex_traitsIcEEE19__parse_atom_escapeIPKcEET_S7_S7_, symObjAddr: 0x3B870, symBinAddr: 0x3CD20, symSize: 0x110 }
  - { offsetInCU: 0x184AF5, offset: 0x184AF5, size: 0x8, addend: 0x0, symName: __ZNSt3__111basic_regexIcNS_12regex_traitsIcEEE25__parse_pattern_characterIPKcEET_S7_S7_, symObjAddr: 0x3BAC0, symBinAddr: 0x3CF70, symSize: 0x1B0 }
  - { offsetInCU: 0x184BF5, offset: 0x184BF5, size: 0x8, addend: 0x0, symName: __ZNSt3__111basic_regexIcNS_12regex_traitsIcEEE30__parse_character_class_escapeIPKcEET_S7_S7_, symObjAddr: 0x3BC70, symBinAddr: 0x3D120, symSize: 0x2E0 }
  - { offsetInCU: 0x185188, offset: 0x185188, size: 0x8, addend: 0x0, symName: __ZNSt3__111basic_regexIcNS_12regex_traitsIcEEE24__parse_character_escapeIPKcEET_S7_S7_PNS_12basic_stringIcNS_11char_traitsIcEENS_9allocatorIcEEEE, symObjAddr: 0x3BF50, symBinAddr: 0x3D400, symSize: 0x3A0 }
  - { offsetInCU: 0x18568F, offset: 0x18568F, size: 0x8, addend: 0x0, symName: __ZNSt3__111basic_regexIcNS_12regex_traitsIcEEE23__parse_expression_termIPKcEET_S7_S7_PNS_20__bracket_expressionIcS2_EE, symObjAddr: 0x3C2F0, symBinAddr: 0x3D7A0, symSize: 0x480 }
  - { offsetInCU: 0x18689F, offset: 0x18689F, size: 0x8, addend: 0x0, symName: __ZNSt3__111basic_regexIcNS_12regex_traitsIcEEE25__parse_equivalence_classIPKcEET_S7_S7_PNS_20__bracket_expressionIcS2_EE, symObjAddr: 0x3C770, symBinAddr: 0x3DC20, symSize: 0x2E0 }
  - { offsetInCU: 0x187880, offset: 0x187880, size: 0x8, addend: 0x0, symName: __ZNSt3__111basic_regexIcNS_12regex_traitsIcEEE18__parse_awk_escapeIPKcEET_S7_S7_PNS_12basic_stringIcNS_11char_traitsIcEENS_9allocatorIcEEEE, symObjAddr: 0x3CCC0, symBinAddr: 0x3E170, symSize: 0x320 }
  - { offsetInCU: 0x1879BA, offset: 0x1879BA, size: 0x8, addend: 0x0, symName: __ZNKSt3__112regex_traitsIcE18__lookup_classnameIPKcEEjT_S5_bc, symObjAddr: 0x3D220, symBinAddr: 0x3E6D0, symSize: 0x130 }
  - { offsetInCU: 0x1880EA, offset: 0x1880EA, size: 0x8, addend: 0x0, symName: __ZNSt3__111basic_regexIcNS_12regex_traitsIcEEE24__parse_collating_symbolIPKcEET_S7_S7_RNS_12basic_stringIcNS_11char_traitsIcEENS_9allocatorIcEEEE, symObjAddr: 0x3CA50, symBinAddr: 0x3DF00, symSize: 0xE0 }
  - { offsetInCU: 0x18851D, offset: 0x18851D, size: 0x8, addend: 0x0, symName: __ZNSt3__111basic_regexIcNS_12regex_traitsIcEEE20__parse_class_escapeIPKcEET_S7_S7_RNS_12basic_stringIcNS_11char_traitsIcEENS_9allocatorIcEEEEPNS_20__bracket_expressionIcS2_EE, symObjAddr: 0x3CB30, symBinAddr: 0x3DFE0, symSize: 0x190 }
  - { offsetInCU: 0x188706, offset: 0x188706, size: 0x8, addend: 0x0, symName: __ZNKSt3__112regex_traitsIcE20__lookup_collatenameIPKcEENS_12basic_stringIcNS_11char_traitsIcEENS_9allocatorIcEEEET_SB_c, symObjAddr: 0x3CFE0, symBinAddr: 0x3E490, symSize: 0x240 }
  - { offsetInCU: 0x18956D, offset: 0x18956D, size: 0x8, addend: 0x0, symName: __ZNSt3__111basic_regexIcNS_12regex_traitsIcEEE32__parse_one_char_or_coll_elem_REIPKcEET_S7_S7_, symObjAddr: 0x3D780, symBinAddr: 0x3EC30, symSize: 0xF0 }
  - { offsetInCU: 0x189925, offset: 0x189925, size: 0x8, addend: 0x0, symName: __ZNSt3__111basic_regexIcNS_12regex_traitsIcEEE20__parse_ORD_CHAR_EREIPKcEET_S7_S7_, symObjAddr: 0x3DAD0, symBinAddr: 0x3EF80, symSize: 0x1B0 }
  - { offsetInCU: 0x189987, offset: 0x189987, size: 0x8, addend: 0x0, symName: __ZNSt3__111basic_regexIcNS_12regex_traitsIcEEE23__parse_QUOTED_CHAR_EREIPKcEET_S7_S7_, symObjAddr: 0x3DC80, symBinAddr: 0x3F130, symSize: 0x1F0 }
  - { offsetInCU: 0x189D2A, offset: 0x189D2A, size: 0x8, addend: 0x0, symName: __ZL43whisper_grammar_reject_candidates_for_stackRKNSt3__16vectorINS0_I23whisper_grammar_elementNS_9allocatorIS1_EEEENS2_IS4_EEEERKNS0_IPKS1_NS2_ISA_EEEERKNS0_I25whisper_grammar_candidateNS2_ISF_EEEE, symObjAddr: 0x3EA30, symBinAddr: 0x3FEE0, symSize: 0xF30 }
  - { offsetInCU: 0x18D3EA, offset: 0x18D3EA, size: 0x8, addend: 0x0, symName: __ZNKSt3__16vectorINS_4pairINS0_IjNS_9allocatorIjEEEE20whisper_partial_utf8EENS2_IS6_EEE20__throw_length_errorB8ue170006Ev, symObjAddr: 0x3EA10, symBinAddr: 0x3FEC0, symSize: 0x10 }
  - { offsetInCU: 0x18D414, offset: 0x18D414, size: 0x8, addend: 0x0, symName: __ZNKSt3__16vectorI25whisper_grammar_candidateNS_9allocatorIS1_EEE20__throw_length_errorB8ue170006Ev, symObjAddr: 0x3EA20, symBinAddr: 0x3FED0, symSize: 0x10 }
  - { offsetInCU: 0x18D864, offset: 0x18D864, size: 0x8, addend: 0x0, symName: __ZNSt3__16vectorIdNS_9allocatorIdEEE13shrink_to_fitEv, symObjAddr: 0x3FCC0, symBinAddr: 0x41170, symSize: 0x1C0 }
  - { offsetInCU: 0x18E1B3, offset: 0x18E1B3, size: 0x8, addend: 0x0, symName: __ZNSt3__16vectorINS0_I23whisper_grammar_elementNS_9allocatorIS1_EEEENS2_IS4_EEEC2ERKS6_.cold.1, symObjAddr: 0x4A970, symBinAddr: 0x15FF30, symSize: 0x50 }
  - { offsetInCU: 0x18E4D2, offset: 0x18E4D2, size: 0x8, addend: 0x0, symName: __ZNSt3__128__exception_guard_exceptionsINS_29_AllocatorDestroyRangeReverseINS_9allocatorINS_6vectorI23whisper_grammar_elementNS2_IS4_EEEEEEPS6_EEED1B8ue170006Ev, symObjAddr: 0x404D0, symBinAddr: 0x41980, symSize: 0x50 }
  - { offsetInCU: 0x18E7BA, offset: 0x18E7BA, size: 0x8, addend: 0x0, symName: __ZNSt3__16vectorINS0_IPK23whisper_grammar_elementNS_9allocatorIS3_EEEENS4_IS6_EEEC2ERKS8_.cold.1, symObjAddr: 0x4A9C0, symBinAddr: 0x15FF80, symSize: 0x50 }
  - { offsetInCU: 0x18EAD9, offset: 0x18EAD9, size: 0x8, addend: 0x0, symName: __ZNSt3__128__exception_guard_exceptionsINS_29_AllocatorDestroyRangeReverseINS_9allocatorINS_6vectorIPK23whisper_grammar_elementNS2_IS6_EEEEEEPS8_EEED1B8ue170006Ev, symObjAddr: 0x406F0, symBinAddr: 0x41BA0, symSize: 0x50 }
  - { offsetInCU: 0x18EEC5, offset: 0x18EEC5, size: 0x8, addend: 0x0, symName: __ZNSt3__16vectorI23whisper_grammar_elementNS_9allocatorIS1_EEE18__assign_with_sizeB8ue170006IPS1_S6_EEvT_T0_l, symObjAddr: 0x40B10, symBinAddr: 0x41FC0, symSize: 0x150 }
  - { offsetInCU: 0x18FB14, offset: 0x18FB14, size: 0x8, addend: 0x0, symName: __ZNSt3__16vectorIPK23whisper_grammar_elementNS_9allocatorIS3_EEE18__assign_with_sizeB8ue170006IPS3_S8_EEvT_T0_l, symObjAddr: 0x40ED0, symBinAddr: 0x42380, symSize: 0x150 }
  - { offsetInCU: 0x190BD8, offset: 0x190BD8, size: 0x8, addend: 0x0, symName: __ZL13median_filterP11ggml_tensorPKS_iiPv, symObjAddr: 0x424E0, symBinAddr: 0x43990, symSize: 0x580 }
  - { offsetInCU: 0x191990, offset: 0x191990, size: 0x8, addend: 0x0, symName: __ZL13median_filterP11ggml_tensorPKS_iiPv.cold.4, symObjAddr: 0x4AAA0, symBinAddr: 0x160060, symSize: 0x2D }
  - { offsetInCU: 0x1919A8, offset: 0x1919A8, size: 0x8, addend: 0x0, symName: __ZL13median_filterP11ggml_tensorPKS_iiPv.cold.1, symObjAddr: 0x4AA10, symBinAddr: 0x15FFD0, symSize: 0x30 }
  - { offsetInCU: 0x1919C0, offset: 0x1919C0, size: 0x8, addend: 0x0, symName: __ZL13median_filterP11ggml_tensorPKS_iiPv.cold.3, symObjAddr: 0x4AA70, symBinAddr: 0x160030, symSize: 0x30 }
  - { offsetInCU: 0x1919D8, offset: 0x1919D8, size: 0x8, addend: 0x0, symName: __ZL13median_filterP11ggml_tensorPKS_iiPv.cold.2, symObjAddr: 0x4AA40, symBinAddr: 0x160000, symSize: 0x30 }
  - { offsetInCU: 0x191A50, offset: 0x191A50, size: 0x8, addend: 0x0, symName: __ZNSt3__16__treeINS_12__value_typeI10asr_tensorPKcEENS_19__map_value_compareIS2_S5_NS_4lessIS2_EELb1EEENS_9allocatorIS5_EEE7destroyEPNS_11__tree_nodeIS5_PvEE, symObjAddr: 0x42A70, symBinAddr: 0x43F20, symSize: 0x40 }
  - { offsetInCU: 0x192018, offset: 0x192018, size: 0x8, addend: 0x0, symName: __ZNSt3__13mapI10asr_tensorPKcNS_4lessIS1_EENS_9allocatorINS_4pairIKS1_S3_EEEEEC2B8ue170006ESt16initializer_listIS9_ERKS5_, symObjAddr: 0x42AB0, symBinAddr: 0x43F60, symSize: 0x170 }
  - { offsetInCU: 0x1925FB, offset: 0x1925FB, size: 0x8, addend: 0x0, symName: __ZNSt3__16__treeINS_12__value_typeI10asr_tensorPKcEENS_19__map_value_compareIS2_S5_NS_4lessIS2_EELb1EEENS_9allocatorIS5_EEE12__find_equalIS2_EERPNS_16__tree_node_baseIPvEENS_21__tree_const_iteratorIS5_PNS_11__tree_nodeIS5_SF_EElEERPNS_15__tree_end_nodeISH_EESI_RKT_, symObjAddr: 0x42C20, symBinAddr: 0x440D0, symSize: 0x160 }
  - { offsetInCU: 0x192AA9, offset: 0x192AA9, size: 0x8, addend: 0x0, symName: __ZNSt3__13mapI10asr_tensorPKcNS_4lessIS1_EENS_9allocatorINS_4pairIKS1_S3_EEEEE6insertB8ue170006INS_20__map_const_iteratorINS_21__tree_const_iteratorINS_12__value_typeIS1_S3_EEPNS_11__tree_nodeISG_PvEElEEEEEEvT_SN_, symObjAddr: 0x42D80, symBinAddr: 0x44230, symSize: 0x120 }
  - { offsetInCU: 0x1932D8, offset: 0x1932D8, size: 0x8, addend: 0x0, symName: __ZNSt3__16__treeINS_12__value_typeI10asr_systemNS_3mapI10asr_tensorPKcNS_4lessIS4_EENS_9allocatorINS_4pairIKS4_S6_EEEEEEEENS_19__map_value_compareIS2_SF_NS7_IS2_EELb1EEENS9_ISF_EEE30__emplace_hint_unique_key_argsIS2_JRKNSA_IKS2_SE_EEEEENSA_INS_15__tree_iteratorISF_PNS_11__tree_nodeISF_PvEElEEbEENS_21__tree_const_iteratorISF_SU_lEERKT_DpOT0_, symObjAddr: 0x42EA0, symBinAddr: 0x44350, symSize: 0xF0 }
  - { offsetInCU: 0x19392A, offset: 0x19392A, size: 0x8, addend: 0x0, symName: __ZNSt3__16__treeINS_12__value_typeI10asr_systemNS_3mapI10asr_tensorPKcNS_4lessIS4_EENS_9allocatorINS_4pairIKS4_S6_EEEEEEEENS_19__map_value_compareIS2_SF_NS7_IS2_EELb1EEENS9_ISF_EEE12__find_equalIS2_EERPNS_16__tree_node_baseIPvEENS_21__tree_const_iteratorISF_PNS_11__tree_nodeISF_SN_EElEERPNS_15__tree_end_nodeISP_EESQ_RKT_, symObjAddr: 0x42F90, symBinAddr: 0x44440, symSize: 0x160 }
  - { offsetInCU: 0x19430A, offset: 0x19430A, size: 0x8, addend: 0x0, symName: __ZNSt3__13mapI10asr_tensor7ggml_opNS_4lessIS1_EENS_9allocatorINS_4pairIKS1_S2_EEEEEC2B8ue170006ESt16initializer_listIS8_ERKS4_, symObjAddr: 0x43130, symBinAddr: 0x445E0, symSize: 0x170 }
  - { offsetInCU: 0x194D32, offset: 0x194D32, size: 0x8, addend: 0x0, symName: __ZNSt3__13mapI10vad_tensor7ggml_opNS_4lessIS1_EENS_9allocatorINS_4pairIKS1_S2_EEEEEC2B8ue170006ESt16initializer_listIS8_ERKS4_, symObjAddr: 0x432E0, symBinAddr: 0x44790, symSize: 0x170 }
  - { offsetInCU: 0x19575A, offset: 0x19575A, size: 0x8, addend: 0x0, symName: __ZNSt3__13mapI10vad_tensorPKcNS_4lessIS1_EENS_9allocatorINS_4pairIKS1_S3_EEEEEC2B8ue170006ESt16initializer_listIS9_ERKS5_, symObjAddr: 0x43490, symBinAddr: 0x44940, symSize: 0x170 }
  - { offsetInCU: 0x195FD4, offset: 0x195FD4, size: 0x8, addend: 0x0, symName: __ZNSt3__16__treeINS_12__value_typeI7e_modelNS_12basic_stringIcNS_11char_traitsIcEENS_9allocatorIcEEEEEENS_19__map_value_compareIS2_S9_NS_4lessIS2_EELb1EEENS6_IS9_EEE30__emplace_hint_unique_key_argsIS2_JRKNS_4pairIKS2_S8_EEEEENSH_INS_15__tree_iteratorIS9_PNS_11__tree_nodeIS9_PvEElEEbEENS_21__tree_const_iteratorIS9_SQ_lEERKT_DpOT0_, symObjAddr: 0x43640, symBinAddr: 0x44AF0, symSize: 0x140 }
  - { offsetInCU: 0x1967FC, offset: 0x1967FC, size: 0x8, addend: 0x0, symName: __ZNSt3__16__treeINS_12__value_typeI7e_modelNS_12basic_stringIcNS_11char_traitsIcEENS_9allocatorIcEEEEEENS_19__map_value_compareIS2_S9_NS_4lessIS2_EELb1EEENS6_IS9_EEE12__find_equalIS2_EERPNS_16__tree_node_baseIPvEENS_21__tree_const_iteratorIS9_PNS_11__tree_nodeIS9_SI_EElEERPNS_15__tree_end_nodeISK_EESL_RKT_, symObjAddr: 0x43780, symBinAddr: 0x44C30, symSize: 0x160 }
  - { offsetInCU: 0x19701C, offset: 0x19701C, size: 0x8, addend: 0x0, symName: __ZNSt3__16__treeINS_12__value_typeINS_12basic_stringIcNS_11char_traitsIcEENS_9allocatorIcEEEENS_4pairIiS7_EEEENS_19__map_value_compareIS7_SA_NS_4lessIS7_EELb1EEENS5_ISA_EEE12__find_equalIS7_EERPNS_16__tree_node_baseIPvEENS_21__tree_const_iteratorISA_PNS_11__tree_nodeISA_SJ_EElEERPNS_15__tree_end_nodeISL_EESM_RKT_, symObjAddr: 0x43B30, symBinAddr: 0x44FE0, symSize: 0x430 }
  - { offsetInCU: 0x197BC2, offset: 0x197BC2, size: 0x8, addend: 0x0, symName: __ZNSt3__14pairIKNS_12basic_stringIcNS_11char_traitsIcEENS_9allocatorIcEEEENS0_IiS6_EEEC2B8ue170006ERKS9_, symObjAddr: 0x43F60, symBinAddr: 0x45410, symSize: 0x140 }
  - { offsetInCU: 0x198A9F, offset: 0x198A9F, size: 0x8, addend: 0x0, symName: __ZNSt3__13mapI30whisper_alignment_heads_preset14whisper_aheadsNS_4lessIS1_EENS_9allocatorINS_4pairIKS1_S2_EEEEEC2B8ue170006ESt16initializer_listIS8_ERKS4_, symObjAddr: 0x44100, symBinAddr: 0x455B0, symSize: 0x170 }
  - { offsetInCU: 0x199521, offset: 0x199521, size: 0x8, addend: 0x0, symName: '__ZNSt3__110__function6__funcIZ18whisper_init_stateE3$_0NS_9allocatorIS2_EEFP11ggml_cgraphvEED1Ev', symObjAddr: 0x44810, symBinAddr: 0x45CC0, symSize: 0x10 }
  - { offsetInCU: 0x19954B, offset: 0x19954B, size: 0x8, addend: 0x0, symName: '__ZNSt3__110__function6__funcIZ18whisper_init_stateE3$_0NS_9allocatorIS2_EEFP11ggml_cgraphvEED0Ev', symObjAddr: 0x44820, symBinAddr: 0x45CD0, symSize: 0x10 }
  - { offsetInCU: 0x19975C, offset: 0x19975C, size: 0x8, addend: 0x0, symName: '__ZNKSt3__110__function6__funcIZ18whisper_init_stateE3$_0NS_9allocatorIS2_EEFP11ggml_cgraphvEE7__cloneEv', symObjAddr: 0x44830, symBinAddr: 0x45CE0, symSize: 0x30 }
  - { offsetInCU: 0x199AA5, offset: 0x199AA5, size: 0x8, addend: 0x0, symName: '__ZNKSt3__110__function6__funcIZ18whisper_init_stateE3$_0NS_9allocatorIS2_EEFP11ggml_cgraphvEE7__cloneEPNS0_6__baseIS7_EE', symObjAddr: 0x44860, symBinAddr: 0x45D10, symSize: 0x20 }
  - { offsetInCU: 0x199C00, offset: 0x199C00, size: 0x8, addend: 0x0, symName: '__ZNSt3__110__function6__funcIZ18whisper_init_stateE3$_0NS_9allocatorIS2_EEFP11ggml_cgraphvEE7destroyEv', symObjAddr: 0x44880, symBinAddr: 0x45D30, symSize: 0x10 }
  - { offsetInCU: 0x199C53, offset: 0x199C53, size: 0x8, addend: 0x0, symName: '__ZNSt3__110__function6__funcIZ18whisper_init_stateE3$_0NS_9allocatorIS2_EEFP11ggml_cgraphvEE18destroy_deallocateEv', symObjAddr: 0x44890, symBinAddr: 0x45D40, symSize: 0x10 }
  - { offsetInCU: 0x199D82, offset: 0x199D82, size: 0x8, addend: 0x0, symName: '__ZNSt3__110__function6__funcIZ18whisper_init_stateE3$_0NS_9allocatorIS2_EEFP11ggml_cgraphvEEclEv', symObjAddr: 0x448A0, symBinAddr: 0x45D50, symSize: 0x20 }
  - { offsetInCU: 0x199E13, offset: 0x199E13, size: 0x8, addend: 0x0, symName: '__ZNKSt3__110__function6__funcIZ18whisper_init_stateE3$_0NS_9allocatorIS2_EEFP11ggml_cgraphvEE6targetERKSt9type_info', symObjAddr: 0x448C0, symBinAddr: 0x45D70, symSize: 0x20 }
  - { offsetInCU: 0x199E89, offset: 0x199E89, size: 0x8, addend: 0x0, symName: '__ZNKSt3__110__function6__funcIZ18whisper_init_stateE3$_0NS_9allocatorIS2_EEFP11ggml_cgraphvEE11target_typeEv', symObjAddr: 0x448E0, symBinAddr: 0x45D90, symSize: 0x10 }
  - { offsetInCU: 0x199EAE, offset: 0x199EAE, size: 0x8, addend: 0x0, symName: '__ZNSt3__110__function6__funcIZ18whisper_init_stateE3$_1NS_9allocatorIS2_EEFP11ggml_cgraphvEED1Ev', symObjAddr: 0x448F0, symBinAddr: 0x45DA0, symSize: 0x10 }
  - { offsetInCU: 0x199ED8, offset: 0x199ED8, size: 0x8, addend: 0x0, symName: '__ZNSt3__110__function6__funcIZ18whisper_init_stateE3$_1NS_9allocatorIS2_EEFP11ggml_cgraphvEED0Ev', symObjAddr: 0x44900, symBinAddr: 0x45DB0, symSize: 0x10 }
  - { offsetInCU: 0x19A0E9, offset: 0x19A0E9, size: 0x8, addend: 0x0, symName: '__ZNKSt3__110__function6__funcIZ18whisper_init_stateE3$_1NS_9allocatorIS2_EEFP11ggml_cgraphvEE7__cloneEv', symObjAddr: 0x44910, symBinAddr: 0x45DC0, symSize: 0x30 }
  - { offsetInCU: 0x19A432, offset: 0x19A432, size: 0x8, addend: 0x0, symName: '__ZNKSt3__110__function6__funcIZ18whisper_init_stateE3$_1NS_9allocatorIS2_EEFP11ggml_cgraphvEE7__cloneEPNS0_6__baseIS7_EE', symObjAddr: 0x44940, symBinAddr: 0x45DF0, symSize: 0x20 }
  - { offsetInCU: 0x19A58D, offset: 0x19A58D, size: 0x8, addend: 0x0, symName: '__ZNSt3__110__function6__funcIZ18whisper_init_stateE3$_1NS_9allocatorIS2_EEFP11ggml_cgraphvEE7destroyEv', symObjAddr: 0x44960, symBinAddr: 0x45E10, symSize: 0x10 }
  - { offsetInCU: 0x19A5E0, offset: 0x19A5E0, size: 0x8, addend: 0x0, symName: '__ZNSt3__110__function6__funcIZ18whisper_init_stateE3$_1NS_9allocatorIS2_EEFP11ggml_cgraphvEE18destroy_deallocateEv', symObjAddr: 0x44970, symBinAddr: 0x45E20, symSize: 0x10 }
  - { offsetInCU: 0x19A70F, offset: 0x19A70F, size: 0x8, addend: 0x0, symName: '__ZNSt3__110__function6__funcIZ18whisper_init_stateE3$_1NS_9allocatorIS2_EEFP11ggml_cgraphvEEclEv', symObjAddr: 0x44980, symBinAddr: 0x45E30, symSize: 0x20 }
  - { offsetInCU: 0x19A7A0, offset: 0x19A7A0, size: 0x8, addend: 0x0, symName: '__ZNKSt3__110__function6__funcIZ18whisper_init_stateE3$_1NS_9allocatorIS2_EEFP11ggml_cgraphvEE6targetERKSt9type_info', symObjAddr: 0x449A0, symBinAddr: 0x45E50, symSize: 0x20 }
  - { offsetInCU: 0x19A816, offset: 0x19A816, size: 0x8, addend: 0x0, symName: '__ZNKSt3__110__function6__funcIZ18whisper_init_stateE3$_1NS_9allocatorIS2_EEFP11ggml_cgraphvEE11target_typeEv', symObjAddr: 0x449C0, symBinAddr: 0x45E70, symSize: 0x10 }
  - { offsetInCU: 0x19A83B, offset: 0x19A83B, size: 0x8, addend: 0x0, symName: '__ZNSt3__110__function6__funcIZ18whisper_init_stateE3$_2NS_9allocatorIS2_EEFP11ggml_cgraphvEED1Ev', symObjAddr: 0x449D0, symBinAddr: 0x45E80, symSize: 0x10 }
  - { offsetInCU: 0x19A865, offset: 0x19A865, size: 0x8, addend: 0x0, symName: '__ZNSt3__110__function6__funcIZ18whisper_init_stateE3$_2NS_9allocatorIS2_EEFP11ggml_cgraphvEED0Ev', symObjAddr: 0x449E0, symBinAddr: 0x45E90, symSize: 0x10 }
  - { offsetInCU: 0x19AA76, offset: 0x19AA76, size: 0x8, addend: 0x0, symName: '__ZNKSt3__110__function6__funcIZ18whisper_init_stateE3$_2NS_9allocatorIS2_EEFP11ggml_cgraphvEE7__cloneEv', symObjAddr: 0x449F0, symBinAddr: 0x45EA0, symSize: 0x30 }
  - { offsetInCU: 0x19ADBF, offset: 0x19ADBF, size: 0x8, addend: 0x0, symName: '__ZNKSt3__110__function6__funcIZ18whisper_init_stateE3$_2NS_9allocatorIS2_EEFP11ggml_cgraphvEE7__cloneEPNS0_6__baseIS7_EE', symObjAddr: 0x44A20, symBinAddr: 0x45ED0, symSize: 0x20 }
  - { offsetInCU: 0x19AF1A, offset: 0x19AF1A, size: 0x8, addend: 0x0, symName: '__ZNSt3__110__function6__funcIZ18whisper_init_stateE3$_2NS_9allocatorIS2_EEFP11ggml_cgraphvEE7destroyEv', symObjAddr: 0x44A40, symBinAddr: 0x45EF0, symSize: 0x10 }
  - { offsetInCU: 0x19AF6D, offset: 0x19AF6D, size: 0x8, addend: 0x0, symName: '__ZNSt3__110__function6__funcIZ18whisper_init_stateE3$_2NS_9allocatorIS2_EEFP11ggml_cgraphvEE18destroy_deallocateEv', symObjAddr: 0x44A50, symBinAddr: 0x45F00, symSize: 0x10 }
  - { offsetInCU: 0x19B09C, offset: 0x19B09C, size: 0x8, addend: 0x0, symName: '__ZNSt3__110__function6__funcIZ18whisper_init_stateE3$_2NS_9allocatorIS2_EEFP11ggml_cgraphvEEclEv', symObjAddr: 0x44A60, symBinAddr: 0x45F10, symSize: 0x20 }
  - { offsetInCU: 0x19B12D, offset: 0x19B12D, size: 0x8, addend: 0x0, symName: '__ZNKSt3__110__function6__funcIZ18whisper_init_stateE3$_2NS_9allocatorIS2_EEFP11ggml_cgraphvEE6targetERKSt9type_info', symObjAddr: 0x44A80, symBinAddr: 0x45F30, symSize: 0x20 }
  - { offsetInCU: 0x19B1A3, offset: 0x19B1A3, size: 0x8, addend: 0x0, symName: '__ZNKSt3__110__function6__funcIZ18whisper_init_stateE3$_2NS_9allocatorIS2_EEFP11ggml_cgraphvEE11target_typeEv', symObjAddr: 0x44AA0, symBinAddr: 0x45F50, symSize: 0x10 }
  - { offsetInCU: 0x19B1C8, offset: 0x19B1C8, size: 0x8, addend: 0x0, symName: '__ZNSt3__110__function6__funcIZ18whisper_init_stateE3$_3NS_9allocatorIS2_EEFP11ggml_cgraphvEED1Ev', symObjAddr: 0x44AB0, symBinAddr: 0x45F60, symSize: 0x10 }
  - { offsetInCU: 0x19B1F2, offset: 0x19B1F2, size: 0x8, addend: 0x0, symName: '__ZNSt3__110__function6__funcIZ18whisper_init_stateE3$_3NS_9allocatorIS2_EEFP11ggml_cgraphvEED0Ev', symObjAddr: 0x44AC0, symBinAddr: 0x45F70, symSize: 0x10 }
  - { offsetInCU: 0x19B403, offset: 0x19B403, size: 0x8, addend: 0x0, symName: '__ZNKSt3__110__function6__funcIZ18whisper_init_stateE3$_3NS_9allocatorIS2_EEFP11ggml_cgraphvEE7__cloneEv', symObjAddr: 0x44AD0, symBinAddr: 0x45F80, symSize: 0x30 }
  - { offsetInCU: 0x19B74C, offset: 0x19B74C, size: 0x8, addend: 0x0, symName: '__ZNKSt3__110__function6__funcIZ18whisper_init_stateE3$_3NS_9allocatorIS2_EEFP11ggml_cgraphvEE7__cloneEPNS0_6__baseIS7_EE', symObjAddr: 0x44B00, symBinAddr: 0x45FB0, symSize: 0x20 }
  - { offsetInCU: 0x19B8A7, offset: 0x19B8A7, size: 0x8, addend: 0x0, symName: '__ZNSt3__110__function6__funcIZ18whisper_init_stateE3$_3NS_9allocatorIS2_EEFP11ggml_cgraphvEE7destroyEv', symObjAddr: 0x44B20, symBinAddr: 0x45FD0, symSize: 0x10 }
  - { offsetInCU: 0x19B8FA, offset: 0x19B8FA, size: 0x8, addend: 0x0, symName: '__ZNSt3__110__function6__funcIZ18whisper_init_stateE3$_3NS_9allocatorIS2_EEFP11ggml_cgraphvEE18destroy_deallocateEv', symObjAddr: 0x44B30, symBinAddr: 0x45FE0, symSize: 0x10 }
  - { offsetInCU: 0x19BA50, offset: 0x19BA50, size: 0x8, addend: 0x0, symName: '__ZNSt3__110__function6__funcIZ18whisper_init_stateE3$_3NS_9allocatorIS2_EEFP11ggml_cgraphvEEclEv', symObjAddr: 0x44B40, symBinAddr: 0x45FF0, symSize: 0x130 }
  - { offsetInCU: 0x19BB7E, offset: 0x19BB7E, size: 0x8, addend: 0x0, symName: '__ZNKSt3__110__function6__funcIZ18whisper_init_stateE3$_3NS_9allocatorIS2_EEFP11ggml_cgraphvEE6targetERKSt9type_info', symObjAddr: 0x44C70, symBinAddr: 0x46120, symSize: 0x20 }
  - { offsetInCU: 0x19BBF4, offset: 0x19BBF4, size: 0x8, addend: 0x0, symName: '__ZNKSt3__110__function6__funcIZ18whisper_init_stateE3$_3NS_9allocatorIS2_EEFP11ggml_cgraphvEE11target_typeEv', symObjAddr: 0x44C90, symBinAddr: 0x46140, symSize: 0x10 }
  - { offsetInCU: 0x19C048, offset: 0x19C048, size: 0x8, addend: 0x0, symName: __ZNKSt3__16vectorI19whisper_vad_segmentNS_9allocatorIS1_EEE20__throw_length_errorB8ue170006Ev, symObjAddr: 0x46220, symBinAddr: 0x476D0, symSize: 0x10 }
  - { offsetInCU: 0x19C072, offset: 0x19C072, size: 0x8, addend: 0x0, symName: __ZNSt3__16vectorI18whisper_token_dataNS_9allocatorIS1_EEE8__appendEm, symObjAddr: 0x46230, symBinAddr: 0x476E0, symSize: 0x1D0 }
  - { offsetInCU: 0x19C384, offset: 0x19C384, size: 0x8, addend: 0x0, symName: __ZNKSt3__16vectorI15whisper_segmentNS_9allocatorIS1_EEE20__throw_length_errorB8ue170006Ev, symObjAddr: 0x46620, symBinAddr: 0x47AD0, symSize: 0x10 }
  - { offsetInCU: 0x19C3AE, offset: 0x19C3AE, size: 0x8, addend: 0x0, symName: __ZNSt3__16vectorIiNS_9allocatorIiEEE8__appendEm, symObjAddr: 0x46630, symBinAddr: 0x47AE0, symSize: 0x240 }
  - { offsetInCU: 0x19C907, offset: 0x19C907, size: 0x8, addend: 0x0, symName: '__ZNSt3__110unique_ptrINS_5tupleIJNS0_INS_15__thread_structENS_14default_deleteIS2_EEEEZ23whisper_full_with_stateE4$_16EEENS3_IS7_EEED1B8ue170006Ev', symObjAddr: 0x46F70, symBinAddr: 0x48420, symSize: 0x50 }
  - { offsetInCU: 0x19CCAC, offset: 0x19CCAC, size: 0x8, addend: 0x0, symName: '__ZNSt3__110unique_ptrINS_5tupleIJNS0_INS_15__thread_structENS_14default_deleteIS2_EEEEZ23whisper_full_with_stateE4$_18EEENS3_IS7_EEED1B8ue170006Ev', symObjAddr: 0x4A270, symBinAddr: 0x4B720, symSize: 0x50 }
  - { offsetInCU: 0x19D4C3, offset: 0x19D4C3, size: 0x8, addend: 0x0, symName: __ZNSt3__110unique_ptrINS_5tupleIJNS0_INS_15__thread_structENS_14default_deleteIS2_EEEEPFiP15whisper_contextP13whisper_state19whisper_full_paramsPKfiES7_S9_SA_SC_iEEENS3_ISF_EEED1B8ue170006Ev, symObjAddr: 0x4A490, symBinAddr: 0x4B940, symSize: 0x50 }
  - { offsetInCU: 0x19D8BE, offset: 0x19D8BE, size: 0x8, addend: 0x0, symName: '__ZNSt3__110unique_ptrINS_5tupleIJNS0_INS_15__thread_structENS_14default_deleteIS2_EEEEZ24whisper_bench_memcpy_strE4$_19iEEENS3_IS7_EEED1B8ue170006Ev', symObjAddr: 0x4A660, symBinAddr: 0x4BB10, symSize: 0x50 }
  - { offsetInCU: 0x4ED3, offset: 0x1A309F, size: 0x8, addend: 0x0, symName: __ZNSt3__14__fs10filesystemdvB8ue170006ERKNS1_4pathES4_, symObjAddr: 0x3770, symBinAddr: 0x57C60, symSize: 0x120 }
  - { offsetInCU: 0x173A3, offset: 0x1B556F, size: 0x8, addend: 0x0, symName: _ggml_backend_register, symObjAddr: 0x0, symBinAddr: 0x545D0, symSize: 0xD0 }
  - { offsetInCU: 0x17582, offset: 0x1B574E, size: 0x8, addend: 0x0, symName: __ZN21ggml_backend_registry16register_backendEP16ggml_backend_regNSt3__110unique_ptrIv17dl_handle_deleterEE, symObjAddr: 0xD0, symBinAddr: 0x546A0, symSize: 0xE0 }
  - { offsetInCU: 0x17A00, offset: 0x1B5BCC, size: 0x8, addend: 0x0, symName: __ZN21ggml_backend_registryC2Ev, symObjAddr: 0x3150, symBinAddr: 0x57720, symSize: 0x120 }
  - { offsetInCU: 0x1804D, offset: 0x1B6219, size: 0x8, addend: 0x0, symName: __ZNSt3__110unique_ptrIv17dl_handle_deleterED1B8ue170006Ev, symObjAddr: 0x1B0, symBinAddr: 0x54780, symSize: 0x30 }
  - { offsetInCU: 0x183E7, offset: 0x1B65B3, size: 0x8, addend: 0x0, symName: __ZNSt3__16vectorI22ggml_backend_reg_entryNS_9allocatorIS1_EEE21__push_back_slow_pathIS1_EEvOT_, symObjAddr: 0x33F0, symBinAddr: 0x579B0, symSize: 0x170 }
  - { offsetInCU: 0x18BE6, offset: 0x1B6DB2, size: 0x8, addend: 0x0, symName: __ZN21ggml_backend_registry15register_deviceEP19ggml_backend_device, symObjAddr: 0x270, symBinAddr: 0x54840, symSize: 0x210 }
  - { offsetInCU: 0x19181, offset: 0x1B734D, size: 0x8, addend: 0x0, symName: _ggml_backend_reg_count, symObjAddr: 0x480, symBinAddr: 0x54A50, symSize: 0x90 }
  - { offsetInCU: 0x1918C, offset: 0x1B7358, size: 0x8, addend: 0x0, symName: __ZN22ggml_backend_reg_entryD1Ev, symObjAddr: 0x3300, symBinAddr: 0x578C0, symSize: 0x30 }
  - { offsetInCU: 0x19252, offset: 0x1B741E, size: 0x8, addend: 0x0, symName: _ggml_backend_device_register, symObjAddr: 0x1E0, symBinAddr: 0x547B0, symSize: 0x90 }
  - { offsetInCU: 0x196FF, offset: 0x1B78CB, size: 0x8, addend: 0x0, symName: __ZNKSt3__16vectorIP19ggml_backend_deviceNS_9allocatorIS2_EEE20__throw_length_errorB8ue170006Ev, symObjAddr: 0x3630, symBinAddr: 0x57B30, symSize: 0x10 }
  - { offsetInCU: 0x19729, offset: 0x1B78F5, size: 0x8, addend: 0x0, symName: __ZL15dl_load_libraryRKNSt3__14__fs10filesystem4pathE, symObjAddr: 0x3640, symBinAddr: 0x57B40, symSize: 0xE0 }
  - { offsetInCU: 0x19750, offset: 0x1B791C, size: 0x8, addend: 0x0, symName: _ggml_backend_reg_count, symObjAddr: 0x480, symBinAddr: 0x54A50, symSize: 0x90 }
  - { offsetInCU: 0x197EB, offset: 0x1B79B7, size: 0x8, addend: 0x0, symName: _ggml_backend_reg_get, symObjAddr: 0x510, symBinAddr: 0x54AE0, symSize: 0x120 }
  - { offsetInCU: 0x19952, offset: 0x1B7B1E, size: 0x8, addend: 0x0, symName: _ggml_backend_reg_by_name, symObjAddr: 0x630, symBinAddr: 0x54C00, symSize: 0x130 }
  - { offsetInCU: 0x19AA0, offset: 0x1B7C6C, size: 0x8, addend: 0x0, symName: _ggml_backend_dev_count, symObjAddr: 0x760, symBinAddr: 0x54D30, symSize: 0x90 }
  - { offsetInCU: 0x19B3B, offset: 0x1B7D07, size: 0x8, addend: 0x0, symName: _ggml_backend_dev_get, symObjAddr: 0x7F0, symBinAddr: 0x54DC0, symSize: 0x120 }
  - { offsetInCU: 0x19C3F, offset: 0x1B7E0B, size: 0x8, addend: 0x0, symName: _ggml_backend_dev_by_name, symObjAddr: 0x910, symBinAddr: 0x54EE0, symSize: 0x130 }
  - { offsetInCU: 0x19D8D, offset: 0x1B7F59, size: 0x8, addend: 0x0, symName: _ggml_backend_dev_by_type, symObjAddr: 0xA40, symBinAddr: 0x55010, symSize: 0xD0 }
  - { offsetInCU: 0x19E78, offset: 0x1B8044, size: 0x8, addend: 0x0, symName: _ggml_backend_init_by_name, symObjAddr: 0xB10, symBinAddr: 0x550E0, symSize: 0x30 }
  - { offsetInCU: 0x19F0B, offset: 0x1B80D7, size: 0x8, addend: 0x0, symName: _ggml_backend_init_by_type, symObjAddr: 0xB40, symBinAddr: 0x55110, symSize: 0x30 }
  - { offsetInCU: 0x19F87, offset: 0x1B8153, size: 0x8, addend: 0x0, symName: _ggml_backend_init_best, symObjAddr: 0xB70, symBinAddr: 0x55140, symSize: 0x30 }
  - { offsetInCU: 0x1A257, offset: 0x1B8423, size: 0x8, addend: 0x0, symName: _ggml_backend_load, symObjAddr: 0xBA0, symBinAddr: 0x55170, symSize: 0xF0 }
  - { offsetInCU: 0x1A5A9, offset: 0x1B8775, size: 0x8, addend: 0x0, symName: __ZNSt3__112basic_stringIcNS_11char_traitsIcEENS_9allocatorIcEEE6appendB8ue170006IPKcLi0EEERS5_T_SA_, symObjAddr: 0x3900, symBinAddr: 0x57DF0, symSize: 0x390 }
  - { offsetInCU: 0x1AF06, offset: 0x1B90D2, size: 0x8, addend: 0x0, symName: __ZN21ggml_backend_registry12load_backendERKNSt3__14__fs10filesystem4pathEb, symObjAddr: 0xC90, symBinAddr: 0x55260, symSize: 0x730 }
  - { offsetInCU: 0x1DDFE, offset: 0x1BBFCA, size: 0x8, addend: 0x0, symName: __ZL15dl_load_libraryRKNSt3__14__fs10filesystem4pathE, symObjAddr: 0x3640, symBinAddr: 0x57B40, symSize: 0xE0 }
  - { offsetInCU: 0x1E5EE, offset: 0x1BC7BA, size: 0x8, addend: 0x0, symName: __ZNSt3__14__fs10filesystem18directory_iteratorD1B8ue170006Ev, symObjAddr: 0x3730, symBinAddr: 0x57C20, symSize: 0x40 }
  - { offsetInCU: 0x1E5F9, offset: 0x1BC7C5, size: 0x8, addend: 0x0, symName: _ggml_backend_unload, symObjAddr: 0x13C0, symBinAddr: 0x55990, symSize: 0x90 }
  - { offsetInCU: 0x1E67C, offset: 0x1BC848, size: 0x8, addend: 0x0, symName: __ZN21ggml_backend_registry14unload_backendEP16ggml_backend_regb, symObjAddr: 0x1450, symBinAddr: 0x55A20, symSize: 0x1C0 }
  - { offsetInCU: 0x1F36E, offset: 0x1BD53A, size: 0x8, addend: 0x0, symName: _ggml_backend_load_all, symObjAddr: 0x1610, symBinAddr: 0x55BE0, symSize: 0x10 }
  - { offsetInCU: 0x1F39B, offset: 0x1BD567, size: 0x8, addend: 0x0, symName: _ggml_backend_load_all_from_path, symObjAddr: 0x1620, symBinAddr: 0x55BF0, symSize: 0xF0 }
  - { offsetInCU: 0x1F507, offset: 0x1BD6D3, size: 0x8, addend: 0x0, symName: __ZL22ggml_backend_load_bestPKcbS0_, symObjAddr: 0x1710, symBinAddr: 0x55CE0, symSize: 0x1A30 }
  - { offsetInCU: 0x28995, offset: 0x1C6B61, size: 0x8, addend: 0x0, symName: __ZNSt3__16vectorINS_4__fs10filesystem4pathENS_9allocatorIS3_EEE21__push_back_slow_pathIS3_EEvOT_, symObjAddr: 0x3C90, symBinAddr: 0x58180, symSize: 0x190 }
  - { offsetInCU: 0x291BE, offset: 0x1C738A, size: 0x8, addend: 0x0, symName: __ZNSt3__14__fs10filesystem18directory_iteratorD1B8ue170006Ev, symObjAddr: 0x3730, symBinAddr: 0x57C20, symSize: 0x40 }
  - { offsetInCU: 0x2928F, offset: 0x1C745B, size: 0x8, addend: 0x0, symName: __ZNSt3__16vectorINS_4__fs10filesystem4pathENS_9allocatorIS3_EEED1B8ue170006Ev, symObjAddr: 0x3890, symBinAddr: 0x57D80, symSize: 0x70 }
  - { offsetInCU: 0x2959F, offset: 0x1C776B, size: 0x8, addend: 0x0, symName: __ZN21ggml_backend_registryD1Ev, symObjAddr: 0x3140, symBinAddr: 0x57710, symSize: 0x10 }
  - { offsetInCU: 0x295DF, offset: 0x1C77AB, size: 0x8, addend: 0x0, symName: __ZN21ggml_backend_registryD2Ev, symObjAddr: 0x3330, symBinAddr: 0x578F0, symSize: 0xC0 }
  - { offsetInCU: 0x29B51, offset: 0x1C7D1D, size: 0x8, addend: 0x0, symName: __ZNSt3__16vectorI22ggml_backend_reg_entryNS_9allocatorIS1_EEED1B8ue170006Ev, symObjAddr: 0x3270, symBinAddr: 0x57840, symSize: 0x80 }
  - { offsetInCU: 0x2A069, offset: 0x1C8235, size: 0x8, addend: 0x0, symName: __ZNKSt3__16vectorI22ggml_backend_reg_entryNS_9allocatorIS1_EEE20__throw_length_errorB8ue170006Ev, symObjAddr: 0x3560, symBinAddr: 0x57B20, symSize: 0x10 }
  - { offsetInCU: 0x2A72E, offset: 0x1C88FA, size: 0x8, addend: 0x0, symName: __ZNKSt3__16vectorINS_4__fs10filesystem4pathENS_9allocatorIS3_EEE20__throw_length_errorB8ue170006Ev, symObjAddr: 0x3E20, symBinAddr: 0x58310, symSize: 0x10 }
  - { offsetInCU: 0x26, offset: 0x1C8954, size: 0x8, addend: 0x0, symName: _ggml_tallocr_new, symObjAddr: 0x0, symBinAddr: 0x58320, symSize: 0x80 }
  - { offsetInCU: 0x11AF, offset: 0x1C9ADD, size: 0x8, addend: 0x0, symName: _ggml_tallocr_new, symObjAddr: 0x0, symBinAddr: 0x58320, symSize: 0x80 }
  - { offsetInCU: 0x1278, offset: 0x1C9BA6, size: 0x8, addend: 0x0, symName: _ggml_tallocr_alloc, symObjAddr: 0x80, symBinAddr: 0x583A0, symSize: 0xC0 }
  - { offsetInCU: 0x1423, offset: 0x1C9D51, size: 0x8, addend: 0x0, symName: _ggml_gallocr_new_n, symObjAddr: 0x140, symBinAddr: 0x58460, symSize: 0x220 }
  - { offsetInCU: 0x1587, offset: 0x1C9EB5, size: 0x8, addend: 0x0, symName: _ggml_gallocr_new, symObjAddr: 0x360, symBinAddr: 0x58680, symSize: 0x20 }
  - { offsetInCU: 0x15E8, offset: 0x1C9F16, size: 0x8, addend: 0x0, symName: _ggml_gallocr_free, symObjAddr: 0x380, symBinAddr: 0x586A0, symSize: 0xE0 }
  - { offsetInCU: 0x1ABF, offset: 0x1CA3ED, size: 0x8, addend: 0x0, symName: _ggml_gallocr_reserve_n, symObjAddr: 0x460, symBinAddr: 0x58780, symSize: 0x1110 }
  - { offsetInCU: 0x2A2D, offset: 0x1CB35B, size: 0x8, addend: 0x0, symName: _ggml_gallocr_allocate_node, symObjAddr: 0x2160, symBinAddr: 0x5A480, symSize: 0x808 }
  - { offsetInCU: 0x30F9, offset: 0x1CBA27, size: 0x8, addend: 0x0, symName: _ggml_gallocr_hash_get, symObjAddr: 0x1570, symBinAddr: 0x59890, symSize: 0xD0 }
  - { offsetInCU: 0x31EF, offset: 0x1CBB1D, size: 0x8, addend: 0x0, symName: _ggml_gallocr_reserve, symObjAddr: 0x1640, symBinAddr: 0x59960, symSize: 0x10 }
  - { offsetInCU: 0x3383, offset: 0x1CBCB1, size: 0x8, addend: 0x0, symName: _ggml_gallocr_alloc_graph, symObjAddr: 0x1650, symBinAddr: 0x59970, symSize: 0x690 }
  - { offsetInCU: 0x386D, offset: 0x1CC19B, size: 0x8, addend: 0x0, symName: _ggml_gallocr_get_buffer_size, symObjAddr: 0x1CE0, symBinAddr: 0x5A000, symSize: 0x70 }
  - { offsetInCU: 0x38F0, offset: 0x1CC21E, size: 0x8, addend: 0x0, symName: _ggml_backend_alloc_ctx_tensors_from_buft, symObjAddr: 0x1D50, symBinAddr: 0x5A070, symSize: 0x1B0 }
  - { offsetInCU: 0x3B88, offset: 0x1CC4B6, size: 0x8, addend: 0x0, symName: _alloc_tensor_range, symObjAddr: 0x1F00, symBinAddr: 0x5A220, symSize: 0x230 }
  - { offsetInCU: 0x3F3C, offset: 0x1CC86A, size: 0x8, addend: 0x0, symName: _ggml_backend_alloc_ctx_tensors, symObjAddr: 0x2130, symBinAddr: 0x5A450, symSize: 0x30 }
  - { offsetInCU: 0x26, offset: 0x1CCA5F, size: 0x8, addend: 0x0, symName: _ggml_backend_buft_name, symObjAddr: 0x0, symBinAddr: 0x5AC90, symSize: 0x10 }
  - { offsetInCU: 0x47, offset: 0x1CCA80, size: 0x8, addend: 0x0, symName: _ggml_backend_cpu_buffer_type, symObjAddr: 0x6520, symBinAddr: 0x611B0, symSize: 0x10 }
  - { offsetInCU: 0x6F, offset: 0x1CCAA8, size: 0x8, addend: 0x0, symName: __ZZ28ggml_backend_cpu_buffer_typeE28ggml_backend_cpu_buffer_type, symObjAddr: 0x7920, symBinAddr: 0x1A5398, symSize: 0x0 }
  - { offsetInCU: 0x110, offset: 0x1CCB49, size: 0x8, addend: 0x0, symName: __ZL27ggml_backend_multi_buffer_i, symObjAddr: 0x7848, symBinAddr: 0x1A0240, symSize: 0x0 }
  - { offsetInCU: 0x130, offset: 0x1CCB69, size: 0x8, addend: 0x0, symName: __ZL25ggml_backend_cpu_buffer_i, symObjAddr: 0x78D8, symBinAddr: 0x1A02D0, symSize: 0x0 }
  - { offsetInCU: 0x14B, offset: 0x1CCB84, size: 0x8, addend: 0x0, symName: __ZL34ggml_backend_cpu_buffer_from_ptr_i, symObjAddr: 0x7890, symBinAddr: 0x1A0288, symSize: 0x0 }
  - { offsetInCU: 0x2FFF, offset: 0x1CFA38, size: 0x8, addend: 0x0, symName: _ggml_backend_buft_name, symObjAddr: 0x0, symBinAddr: 0x5AC90, symSize: 0x10 }
  - { offsetInCU: 0x307B, offset: 0x1CFAB4, size: 0x8, addend: 0x0, symName: _ggml_backend_buft_alloc_buffer, symObjAddr: 0x10, symBinAddr: 0x5ACA0, symSize: 0x60 }
  - { offsetInCU: 0x30EE, offset: 0x1CFB27, size: 0x8, addend: 0x0, symName: _ggml_backend_buffer_init, symObjAddr: 0x70, symBinAddr: 0x5AD00, symSize: 0x70 }
  - { offsetInCU: 0x3134, offset: 0x1CFB6D, size: 0x8, addend: 0x0, symName: _ggml_backend_buft_get_alignment, symObjAddr: 0xE0, symBinAddr: 0x5AD70, symSize: 0x10 }
  - { offsetInCU: 0x3166, offset: 0x1CFB9F, size: 0x8, addend: 0x0, symName: _ggml_backend_buft_get_max_size, symObjAddr: 0xF0, symBinAddr: 0x5AD80, symSize: 0x20 }
  - { offsetInCU: 0x318F, offset: 0x1CFBC8, size: 0x8, addend: 0x0, symName: _ggml_backend_buft_get_alloc_size, symObjAddr: 0x110, symBinAddr: 0x5ADA0, symSize: 0x20 }
  - { offsetInCU: 0x31F9, offset: 0x1CFC32, size: 0x8, addend: 0x0, symName: _ggml_backend_buft_is_host, symObjAddr: 0x130, symBinAddr: 0x5ADC0, symSize: 0x20 }
  - { offsetInCU: 0x3222, offset: 0x1CFC5B, size: 0x8, addend: 0x0, symName: _ggml_backend_buft_get_device, symObjAddr: 0x150, symBinAddr: 0x5ADE0, symSize: 0x10 }
  - { offsetInCU: 0x327F, offset: 0x1CFCB8, size: 0x8, addend: 0x0, symName: _ggml_backend_buffer_name, symObjAddr: 0x160, symBinAddr: 0x5ADF0, symSize: 0x10 }
  - { offsetInCU: 0x32E6, offset: 0x1CFD1F, size: 0x8, addend: 0x0, symName: _ggml_backend_buffer_get_type, symObjAddr: 0x170, symBinAddr: 0x5AE00, symSize: 0x10 }
  - { offsetInCU: 0x3303, offset: 0x1CFD3C, size: 0x8, addend: 0x0, symName: _ggml_backend_buffer_free, symObjAddr: 0x180, symBinAddr: 0x5AE10, symSize: 0x30 }
  - { offsetInCU: 0x3336, offset: 0x1CFD6F, size: 0x8, addend: 0x0, symName: _ggml_backend_buffer_get_size, symObjAddr: 0x1B0, symBinAddr: 0x5AE40, symSize: 0x10 }
  - { offsetInCU: 0x3353, offset: 0x1CFD8C, size: 0x8, addend: 0x0, symName: _ggml_backend_buffer_get_base, symObjAddr: 0x1C0, symBinAddr: 0x5AE50, symSize: 0x40 }
  - { offsetInCU: 0x33B8, offset: 0x1CFDF1, size: 0x8, addend: 0x0, symName: _ggml_backend_buffer_init_tensor, symObjAddr: 0x200, symBinAddr: 0x5AE90, symSize: 0x20 }
  - { offsetInCU: 0x33E9, offset: 0x1CFE22, size: 0x8, addend: 0x0, symName: _ggml_backend_buffer_clear, symObjAddr: 0x220, symBinAddr: 0x5AEB0, symSize: 0x20 }
  - { offsetInCU: 0x3436, offset: 0x1CFE6F, size: 0x8, addend: 0x0, symName: _ggml_backend_buffer_get_alignment, symObjAddr: 0x240, symBinAddr: 0x5AED0, symSize: 0x10 }
  - { offsetInCU: 0x34C3, offset: 0x1CFEFC, size: 0x8, addend: 0x0, symName: _ggml_backend_buffer_get_max_size, symObjAddr: 0x250, symBinAddr: 0x5AEE0, symSize: 0x20 }
  - { offsetInCU: 0x356B, offset: 0x1CFFA4, size: 0x8, addend: 0x0, symName: _ggml_backend_buffer_get_alloc_size, symObjAddr: 0x270, symBinAddr: 0x5AF00, symSize: 0x20 }
  - { offsetInCU: 0x361A, offset: 0x1D0053, size: 0x8, addend: 0x0, symName: _ggml_backend_buffer_is_host, symObjAddr: 0x290, symBinAddr: 0x5AF20, symSize: 0x20 }
  - { offsetInCU: 0x36DC, offset: 0x1D0115, size: 0x8, addend: 0x0, symName: _ggml_backend_buffer_set_usage, symObjAddr: 0x2B0, symBinAddr: 0x5AF40, symSize: 0x60 }
  - { offsetInCU: 0x3794, offset: 0x1D01CD, size: 0x8, addend: 0x0, symName: _ggml_backend_buffer_is_multi_buffer, symObjAddr: 0x310, symBinAddr: 0x5AFA0, symSize: 0x20 }
  - { offsetInCU: 0x37B1, offset: 0x1D01EA, size: 0x8, addend: 0x0, symName: _ggml_backend_multi_buffer_set_usage, symObjAddr: 0x330, symBinAddr: 0x5AFC0, symSize: 0x80 }
  - { offsetInCU: 0x3849, offset: 0x1D0282, size: 0x8, addend: 0x0, symName: _ggml_backend_buffer_get_usage, symObjAddr: 0x3B0, symBinAddr: 0x5B040, symSize: 0x10 }
  - { offsetInCU: 0x3872, offset: 0x1D02AB, size: 0x8, addend: 0x0, symName: _ggml_backend_buffer_reset, symObjAddr: 0x3C0, symBinAddr: 0x5B050, symSize: 0x20 }
  - { offsetInCU: 0x38A3, offset: 0x1D02DC, size: 0x8, addend: 0x0, symName: _ggml_backend_buffer_copy_tensor, symObjAddr: 0x3E0, symBinAddr: 0x5B070, symSize: 0x30 }
  - { offsetInCU: 0x38E2, offset: 0x1D031B, size: 0x8, addend: 0x0, symName: _ggml_backend_guid, symObjAddr: 0x410, symBinAddr: 0x5B0A0, symSize: 0x20 }
  - { offsetInCU: 0x390B, offset: 0x1D0344, size: 0x8, addend: 0x0, symName: _ggml_backend_name, symObjAddr: 0x430, symBinAddr: 0x5B0C0, symSize: 0x20 }
  - { offsetInCU: 0x3934, offset: 0x1D036D, size: 0x8, addend: 0x0, symName: _ggml_backend_free, symObjAddr: 0x450, symBinAddr: 0x5B0E0, symSize: 0x10 }
  - { offsetInCU: 0x3980, offset: 0x1D03B9, size: 0x8, addend: 0x0, symName: _ggml_backend_get_default_buffer_type, symObjAddr: 0x460, symBinAddr: 0x5B0F0, symSize: 0x10 }
  - { offsetInCU: 0x39C9, offset: 0x1D0402, size: 0x8, addend: 0x0, symName: _ggml_backend_dev_buffer_type, symObjAddr: 0x470, symBinAddr: 0x5B100, symSize: 0x10 }
  - { offsetInCU: 0x3A3B, offset: 0x1D0474, size: 0x8, addend: 0x0, symName: _ggml_backend_alloc_buffer, symObjAddr: 0x480, symBinAddr: 0x5B110, symSize: 0x70 }
  - { offsetInCU: 0x3B3D, offset: 0x1D0576, size: 0x8, addend: 0x0, symName: _ggml_backend_get_alignment, symObjAddr: 0x4F0, symBinAddr: 0x5B180, symSize: 0x20 }
  - { offsetInCU: 0x3BDC, offset: 0x1D0615, size: 0x8, addend: 0x0, symName: _ggml_backend_get_max_size, symObjAddr: 0x510, symBinAddr: 0x5B1A0, symSize: 0x30 }
  - { offsetInCU: 0x3C7B, offset: 0x1D06B4, size: 0x8, addend: 0x0, symName: _ggml_backend_tensor_set_async, symObjAddr: 0x540, symBinAddr: 0x5B1D0, symSize: 0xD0 }
  - { offsetInCU: 0x3D7D, offset: 0x1D07B6, size: 0x8, addend: 0x0, symName: _ggml_backend_tensor_set, symObjAddr: 0x610, symBinAddr: 0x5B2A0, symSize: 0x120 }
  - { offsetInCU: 0x3E8E, offset: 0x1D08C7, size: 0x8, addend: 0x0, symName: _ggml_backend_tensor_get_async, symObjAddr: 0x730, symBinAddr: 0x5B3C0, symSize: 0xD0 }
  - { offsetInCU: 0x3F90, offset: 0x1D09C9, size: 0x8, addend: 0x0, symName: _ggml_backend_tensor_get, symObjAddr: 0x800, symBinAddr: 0x5B490, symSize: 0x120 }
  - { offsetInCU: 0x40A1, offset: 0x1D0ADA, size: 0x8, addend: 0x0, symName: _ggml_backend_tensor_memset, symObjAddr: 0x920, symBinAddr: 0x5B5B0, symSize: 0x120 }
  - { offsetInCU: 0x41A9, offset: 0x1D0BE2, size: 0x8, addend: 0x0, symName: _ggml_backend_synchronize, symObjAddr: 0xA40, symBinAddr: 0x5B6D0, symSize: 0x20 }
  - { offsetInCU: 0x41D2, offset: 0x1D0C0B, size: 0x8, addend: 0x0, symName: _ggml_backend_graph_plan_create, symObjAddr: 0xA60, symBinAddr: 0x5B6F0, symSize: 0x40 }
  - { offsetInCU: 0x4233, offset: 0x1D0C6C, size: 0x8, addend: 0x0, symName: _ggml_backend_graph_plan_free, symObjAddr: 0xAA0, symBinAddr: 0x5B730, symSize: 0x40 }
  - { offsetInCU: 0x4290, offset: 0x1D0CC9, size: 0x8, addend: 0x0, symName: _ggml_backend_graph_plan_compute, symObjAddr: 0xAE0, symBinAddr: 0x5B770, symSize: 0x40 }
  - { offsetInCU: 0x432F, offset: 0x1D0D68, size: 0x8, addend: 0x0, symName: _ggml_backend_graph_compute, symObjAddr: 0xB20, symBinAddr: 0x5B7B0, symSize: 0x30 }
  - { offsetInCU: 0x43DD, offset: 0x1D0E16, size: 0x8, addend: 0x0, symName: _ggml_backend_graph_compute_async, symObjAddr: 0xB50, symBinAddr: 0x5B7E0, symSize: 0x10 }
  - { offsetInCU: 0x4446, offset: 0x1D0E7F, size: 0x8, addend: 0x0, symName: _ggml_backend_supports_op, symObjAddr: 0xB60, symBinAddr: 0x5B7F0, symSize: 0x10 }
  - { offsetInCU: 0x44A9, offset: 0x1D0EE2, size: 0x8, addend: 0x0, symName: _ggml_backend_dev_supports_op, symObjAddr: 0xB70, symBinAddr: 0x5B800, symSize: 0x10 }
  - { offsetInCU: 0x4512, offset: 0x1D0F4B, size: 0x8, addend: 0x0, symName: _ggml_backend_supports_buft, symObjAddr: 0xB80, symBinAddr: 0x5B810, symSize: 0x10 }
  - { offsetInCU: 0x4575, offset: 0x1D0FAE, size: 0x8, addend: 0x0, symName: _ggml_backend_dev_supports_buft, symObjAddr: 0xB90, symBinAddr: 0x5B820, symSize: 0x10 }
  - { offsetInCU: 0x45DE, offset: 0x1D1017, size: 0x8, addend: 0x0, symName: _ggml_backend_offload_op, symObjAddr: 0xBA0, symBinAddr: 0x5B830, symSize: 0x20 }
  - { offsetInCU: 0x4630, offset: 0x1D1069, size: 0x8, addend: 0x0, symName: _ggml_backend_dev_offload_op, symObjAddr: 0xBC0, symBinAddr: 0x5B850, symSize: 0x20 }
  - { offsetInCU: 0x4661, offset: 0x1D109A, size: 0x8, addend: 0x0, symName: _ggml_backend_get_device, symObjAddr: 0xBE0, symBinAddr: 0x5B870, symSize: 0x10 }
  - { offsetInCU: 0x4705, offset: 0x1D113E, size: 0x8, addend: 0x0, symName: _ggml_backend_tensor_copy, symObjAddr: 0xBF0, symBinAddr: 0x5B880, symSize: 0x1B0 }
  - { offsetInCU: 0x49BE, offset: 0x1D13F7, size: 0x8, addend: 0x0, symName: _ggml_backend_tensor_copy_async, symObjAddr: 0xDA0, symBinAddr: 0x5BA30, symSize: 0x100 }
  - { offsetInCU: 0x4B21, offset: 0x1D155A, size: 0x8, addend: 0x0, symName: _ggml_backend_event_new, symObjAddr: 0xEA0, symBinAddr: 0x5BB30, symSize: 0x20 }
  - { offsetInCU: 0x4B4A, offset: 0x1D1583, size: 0x8, addend: 0x0, symName: _ggml_backend_event_free, symObjAddr: 0xEC0, symBinAddr: 0x5BB50, symSize: 0x20 }
  - { offsetInCU: 0x4B75, offset: 0x1D15AE, size: 0x8, addend: 0x0, symName: _ggml_backend_event_record, symObjAddr: 0xEE0, symBinAddr: 0x5BB70, symSize: 0x40 }
  - { offsetInCU: 0x4BC1, offset: 0x1D15FA, size: 0x8, addend: 0x0, symName: _ggml_backend_event_synchronize, symObjAddr: 0xF20, symBinAddr: 0x5BBB0, symSize: 0x40 }
  - { offsetInCU: 0x4C03, offset: 0x1D163C, size: 0x8, addend: 0x0, symName: _ggml_backend_event_wait, symObjAddr: 0xF60, symBinAddr: 0x5BBF0, symSize: 0x40 }
  - { offsetInCU: 0x4C4F, offset: 0x1D1688, size: 0x8, addend: 0x0, symName: _ggml_backend_dev_name, symObjAddr: 0xFA0, symBinAddr: 0x5BC30, symSize: 0x10 }
  - { offsetInCU: 0x4C8F, offset: 0x1D16C8, size: 0x8, addend: 0x0, symName: _ggml_backend_dev_description, symObjAddr: 0xFB0, symBinAddr: 0x5BC40, symSize: 0x10 }
  - { offsetInCU: 0x4CCF, offset: 0x1D1708, size: 0x8, addend: 0x0, symName: _ggml_backend_dev_memory, symObjAddr: 0xFC0, symBinAddr: 0x5BC50, symSize: 0x10 }
  - { offsetInCU: 0x4D39, offset: 0x1D1772, size: 0x8, addend: 0x0, symName: _ggml_backend_dev_type, symObjAddr: 0xFD0, symBinAddr: 0x5BC60, symSize: 0x10 }
  - { offsetInCU: 0x4D6B, offset: 0x1D17A4, size: 0x8, addend: 0x0, symName: _ggml_backend_dev_get_props, symObjAddr: 0xFE0, symBinAddr: 0x5BC70, symSize: 0x20 }
  - { offsetInCU: 0x4DBE, offset: 0x1D17F7, size: 0x8, addend: 0x0, symName: _ggml_backend_dev_backend_reg, symObjAddr: 0x1000, symBinAddr: 0x5BC90, symSize: 0x10 }
  - { offsetInCU: 0x4DE9, offset: 0x1D1822, size: 0x8, addend: 0x0, symName: _ggml_backend_dev_init, symObjAddr: 0x1010, symBinAddr: 0x5BCA0, symSize: 0x10 }
  - { offsetInCU: 0x4E40, offset: 0x1D1879, size: 0x8, addend: 0x0, symName: _ggml_backend_dev_host_buffer_type, symObjAddr: 0x1020, symBinAddr: 0x5BCB0, symSize: 0x20 }
  - { offsetInCU: 0x4E77, offset: 0x1D18B0, size: 0x8, addend: 0x0, symName: _ggml_backend_dev_buffer_from_host_ptr, symObjAddr: 0x1040, symBinAddr: 0x5BCD0, symSize: 0x10 }
  - { offsetInCU: 0x4EFC, offset: 0x1D1935, size: 0x8, addend: 0x0, symName: _ggml_backend_reg_name, symObjAddr: 0x1050, symBinAddr: 0x5BCE0, symSize: 0x10 }
  - { offsetInCU: 0x4F3C, offset: 0x1D1975, size: 0x8, addend: 0x0, symName: _ggml_backend_reg_dev_count, symObjAddr: 0x1060, symBinAddr: 0x5BCF0, symSize: 0x10 }
  - { offsetInCU: 0x4F7C, offset: 0x1D19B5, size: 0x8, addend: 0x0, symName: _ggml_backend_reg_dev_get, symObjAddr: 0x1070, symBinAddr: 0x5BD00, symSize: 0x10 }
  - { offsetInCU: 0x4FD3, offset: 0x1D1A0C, size: 0x8, addend: 0x0, symName: _ggml_backend_reg_get_proc_address, symObjAddr: 0x1080, symBinAddr: 0x5BD10, symSize: 0x20 }
  - { offsetInCU: 0x5019, offset: 0x1D1A52, size: 0x8, addend: 0x0, symName: _ggml_backend_multi_buffer_alloc_buffer, symObjAddr: 0x10A0, symBinAddr: 0x5BD30, symSize: 0x130 }
  - { offsetInCU: 0x50FF, offset: 0x1D1B38, size: 0x8, addend: 0x0, symName: __ZL37ggml_backend_multi_buffer_free_bufferP19ggml_backend_buffer, symObjAddr: 0x11D0, symBinAddr: 0x5BE60, symSize: 0x70 }
  - { offsetInCU: 0x5225, offset: 0x1D1C5E, size: 0x8, addend: 0x0, symName: _ggml_backend_sched_new, symObjAddr: 0x1240, symBinAddr: 0x5BED0, symSize: 0x410 }
  - { offsetInCU: 0x55C7, offset: 0x1D2000, size: 0x8, addend: 0x0, symName: _ggml_backend_sched_reset, symObjAddr: 0x1650, symBinAddr: 0x5C2E0, symSize: 0x70 }
  - { offsetInCU: 0x5614, offset: 0x1D204D, size: 0x8, addend: 0x0, symName: _ggml_backend_sched_free, symObjAddr: 0x16C0, symBinAddr: 0x5C350, symSize: 0x130 }
  - { offsetInCU: 0x5722, offset: 0x1D215B, size: 0x8, addend: 0x0, symName: _ggml_backend_sched_reserve, symObjAddr: 0x17F0, symBinAddr: 0x5C480, symSize: 0x110 }
  - { offsetInCU: 0x582D, offset: 0x1D2266, size: 0x8, addend: 0x0, symName: __ZL30ggml_backend_sched_split_graphP18ggml_backend_schedP11ggml_cgraph, symObjAddr: 0x1900, symBinAddr: 0x5C590, symSize: 0x30B0 }
  - { offsetInCU: 0x86A6, offset: 0x1D50DF, size: 0x8, addend: 0x0, symName: __ZL38ggml_backend_sched_backend_id_from_curP18ggml_backend_schedP11ggml_tensor, symObjAddr: 0x66F0, symBinAddr: 0x61380, symSize: 0x3E0 }
  - { offsetInCU: 0x8C7C, offset: 0x1D56B5, size: 0x8, addend: 0x0, symName: __ZL35ggml_backend_sched_buffer_supportedP18ggml_backend_schedP11ggml_tensori, symObjAddr: 0x6AD0, symBinAddr: 0x61760, symSize: 0x210 }
  - { offsetInCU: 0x8F27, offset: 0x1D5960, size: 0x8, addend: 0x0, symName: _ggml_backend_sched_synchronize, symObjAddr: 0x49B0, symBinAddr: 0x5F640, symSize: 0x60 }
  - { offsetInCU: 0x8FE6, offset: 0x1D5A1F, size: 0x8, addend: 0x0, symName: _ggml_backend_sched_alloc_graph, symObjAddr: 0x4A10, symBinAddr: 0x5F6A0, symSize: 0x1A0 }
  - { offsetInCU: 0x9150, offset: 0x1D5B89, size: 0x8, addend: 0x0, symName: _ggml_backend_sched_graph_compute, symObjAddr: 0x4BB0, symBinAddr: 0x5F840, symSize: 0x70 }
  - { offsetInCU: 0x9221, offset: 0x1D5C5A, size: 0x8, addend: 0x0, symName: _ggml_backend_sched_graph_compute_async, symObjAddr: 0x4C20, symBinAddr: 0x5F8B0, symSize: 0x6C0 }
  - { offsetInCU: 0x99D0, offset: 0x1D6409, size: 0x8, addend: 0x0, symName: _ggml_backend_sched_set_eval_callback, symObjAddr: 0x52E0, symBinAddr: 0x5FF70, symSize: 0x20 }
  - { offsetInCU: 0x9A15, offset: 0x1D644E, size: 0x8, addend: 0x0, symName: _ggml_backend_sched_get_n_splits, symObjAddr: 0x5300, symBinAddr: 0x5FF90, symSize: 0x10 }
  - { offsetInCU: 0x9A40, offset: 0x1D6479, size: 0x8, addend: 0x0, symName: _ggml_backend_sched_get_n_copies, symObjAddr: 0x5310, symBinAddr: 0x5FFA0, symSize: 0x10 }
  - { offsetInCU: 0x9A6B, offset: 0x1D64A4, size: 0x8, addend: 0x0, symName: _ggml_backend_sched_get_n_backends, symObjAddr: 0x5320, symBinAddr: 0x5FFB0, symSize: 0x10 }
  - { offsetInCU: 0x9A96, offset: 0x1D64CF, size: 0x8, addend: 0x0, symName: _ggml_backend_sched_get_backend, symObjAddr: 0x5330, symBinAddr: 0x5FFC0, symSize: 0x40 }
  - { offsetInCU: 0x9B26, offset: 0x1D655F, size: 0x8, addend: 0x0, symName: _ggml_backend_sched_get_buffer_size, symObjAddr: 0x5370, symBinAddr: 0x60000, symSize: 0x60 }
  - { offsetInCU: 0x9BF3, offset: 0x1D662C, size: 0x8, addend: 0x0, symName: _ggml_backend_sched_set_tensor_backend, symObjAddr: 0x53D0, symBinAddr: 0x60060, symSize: 0x130 }
  - { offsetInCU: 0x9D61, offset: 0x1D679A, size: 0x8, addend: 0x0, symName: _ggml_backend_sched_get_tensor_backend, symObjAddr: 0x5500, symBinAddr: 0x60190, symSize: 0xF0 }
  - { offsetInCU: 0x9E75, offset: 0x1D68AE, size: 0x8, addend: 0x0, symName: _ggml_backend_view_init, symObjAddr: 0x55F0, symBinAddr: 0x60280, symSize: 0xE0 }
  - { offsetInCU: 0x9F97, offset: 0x1D69D0, size: 0x8, addend: 0x0, symName: _ggml_backend_tensor_alloc, symObjAddr: 0x56D0, symBinAddr: 0x60360, symSize: 0x1B0 }
  - { offsetInCU: 0xA22F, offset: 0x1D6C68, size: 0x8, addend: 0x0, symName: _ggml_backend_graph_copy, symObjAddr: 0x5880, symBinAddr: 0x60510, symSize: 0x3A0 }
  - { offsetInCU: 0xA5EF, offset: 0x1D7028, size: 0x8, addend: 0x0, symName: __ZL21graph_copy_dup_tensor13ggml_hash_setPP11ggml_tensorP12ggml_contextS4_S1_, symObjAddr: 0x5C20, symBinAddr: 0x608B0, symSize: 0x490 }
  - { offsetInCU: 0xAA50, offset: 0x1D7489, size: 0x8, addend: 0x0, symName: __ZL22graph_copy_init_tensorP13ggml_hash_setPP11ggml_tensorPbS2_, symObjAddr: 0x60B0, symBinAddr: 0x60D40, symSize: 0x250 }
  - { offsetInCU: 0xAD2D, offset: 0x1D7766, size: 0x8, addend: 0x0, symName: _ggml_backend_graph_copy_free, symObjAddr: 0x6300, symBinAddr: 0x60F90, symSize: 0x40 }
  - { offsetInCU: 0xADB8, offset: 0x1D77F1, size: 0x8, addend: 0x0, symName: _ggml_backend_graph_copy_free, symObjAddr: 0x6300, symBinAddr: 0x60F90, symSize: 0x40 }
  - { offsetInCU: 0xAEAF, offset: 0x1D78E8, size: 0x8, addend: 0x0, symName: _ggml_backend_compare_graph_backend, symObjAddr: 0x6340, symBinAddr: 0x60FD0, symSize: 0x1E0 }
  - { offsetInCU: 0xB266, offset: 0x1D7C9F, size: 0x8, addend: 0x0, symName: __ZL37ggml_backend_cpu_buffer_type_get_nameP24ggml_backend_buffer_type, symObjAddr: 0x6530, symBinAddr: 0x611C0, symSize: 0x10 }
  - { offsetInCU: 0xB292, offset: 0x1D7CCB, size: 0x8, addend: 0x0, symName: __ZL41ggml_backend_cpu_buffer_type_alloc_bufferP24ggml_backend_buffer_typem, symObjAddr: 0x6540, symBinAddr: 0x611D0, symSize: 0xA0 }
  - { offsetInCU: 0xB364, offset: 0x1D7D9D, size: 0x8, addend: 0x0, symName: __ZL42ggml_backend_cpu_buffer_type_get_alignmentP24ggml_backend_buffer_type, symObjAddr: 0x65E0, symBinAddr: 0x61270, symSize: 0x10 }
  - { offsetInCU: 0xB390, offset: 0x1D7DC9, size: 0x8, addend: 0x0, symName: __ZL36ggml_backend_cpu_buffer_type_is_hostP24ggml_backend_buffer_type, symObjAddr: 0x65F0, symBinAddr: 0x61280, symSize: 0x10 }
  - { offsetInCU: 0xB3BC, offset: 0x1D7DF5, size: 0x8, addend: 0x0, symName: _ggml_backend_cpu_buffer_from_ptr, symObjAddr: 0x6600, symBinAddr: 0x61290, symSize: 0xA0 }
  - { offsetInCU: 0xB46E, offset: 0x1D7EA7, size: 0x8, addend: 0x0, symName: __ZL31ggml_backend_multi_buffer_clearP19ggml_backend_bufferh, symObjAddr: 0x66A0, symBinAddr: 0x61330, symSize: 0x50 }
  - { offsetInCU: 0xB5A5, offset: 0x1D7FDE, size: 0x8, addend: 0x0, symName: __ZL35ggml_backend_cpu_buffer_free_bufferP19ggml_backend_buffer, symObjAddr: 0x6CE0, symBinAddr: 0x61970, symSize: 0x20 }
  - { offsetInCU: 0xB5F3, offset: 0x1D802C, size: 0x8, addend: 0x0, symName: __ZL32ggml_backend_cpu_buffer_get_baseP19ggml_backend_buffer, symObjAddr: 0x6D00, symBinAddr: 0x61990, symSize: 0x20 }
  - { offsetInCU: 0xB633, offset: 0x1D806C, size: 0x8, addend: 0x0, symName: __ZL37ggml_backend_cpu_buffer_memset_tensorP19ggml_backend_bufferP11ggml_tensorhmm, symObjAddr: 0x6D20, symBinAddr: 0x619B0, symSize: 0x20 }
  - { offsetInCU: 0xB69D, offset: 0x1D80D6, size: 0x8, addend: 0x0, symName: __ZL34ggml_backend_cpu_buffer_set_tensorP19ggml_backend_bufferP11ggml_tensorPKvmm, symObjAddr: 0x6D40, symBinAddr: 0x619D0, symSize: 0x20 }
  - { offsetInCU: 0xB707, offset: 0x1D8140, size: 0x8, addend: 0x0, symName: __ZL34ggml_backend_cpu_buffer_get_tensorP19ggml_backend_bufferPK11ggml_tensorPvmm, symObjAddr: 0x6D60, symBinAddr: 0x619F0, symSize: 0x20 }
  - { offsetInCU: 0xB771, offset: 0x1D81AA, size: 0x8, addend: 0x0, symName: __ZL34ggml_backend_cpu_buffer_cpy_tensorP19ggml_backend_bufferPK11ggml_tensorPS1_, symObjAddr: 0x6D80, symBinAddr: 0x61A10, symSize: 0x60 }
  - { offsetInCU: 0xB83E, offset: 0x1D8277, size: 0x8, addend: 0x0, symName: __ZL29ggml_backend_cpu_buffer_clearP19ggml_backend_bufferh, symObjAddr: 0x6DE0, symBinAddr: 0x61A70, symSize: 0x20 }
  - { offsetInCU: 0xB87A, offset: 0x1D82B3, size: 0x8, addend: 0x0, symName: __ZL46ggml_backend_cpu_buffer_from_ptr_type_get_nameP24ggml_backend_buffer_type, symObjAddr: 0x6E00, symBinAddr: 0x61A90, symSize: 0xD }
  - { offsetInCU: 0x26, offset: 0x1D8343, size: 0x8, addend: 0x0, symName: _ggml_opt_dataset_init, symObjAddr: 0x0, symBinAddr: 0x61AA0, symSize: 0x3D0 }
  - { offsetInCU: 0xC5D8, offset: 0x1E48F5, size: 0x8, addend: 0x0, symName: __ZNSt3__124uniform_int_distributionIlEclINS_23mersenne_twister_engineIjLm32ELm624ELm397ELm31ELj2567483615ELm11ELj4294967295ELm7ELj2636928640ELm15ELj4022730752ELm18ELj1812433253EEEEElRT_RKNS1_10param_typeE, symObjAddr: 0x4AB0, symBinAddr: 0x66310, symSize: 0x250 }
  - { offsetInCU: 0xE986, offset: 0x1E6CA3, size: 0x8, addend: 0x0, symName: _ggml_opt_dataset_init, symObjAddr: 0x0, symBinAddr: 0x61AA0, symSize: 0x3D0 }
  - { offsetInCU: 0xEC8C, offset: 0x1E6FA9, size: 0x8, addend: 0x0, symName: __ZNSt3__16vectorIxNS_9allocatorIxEEE8__appendEm, symObjAddr: 0x4860, symBinAddr: 0x660C0, symSize: 0x240 }
  - { offsetInCU: 0xF3CA, offset: 0x1E76E7, size: 0x8, addend: 0x0, symName: _ggml_opt_dataset_free, symObjAddr: 0x3D0, symBinAddr: 0x61E70, symSize: 0x40 }
  - { offsetInCU: 0xF5B9, offset: 0x1E78D6, size: 0x8, addend: 0x0, symName: _ggml_opt_dataset_ndata, symObjAddr: 0x410, symBinAddr: 0x61EB0, symSize: 0x10 }
  - { offsetInCU: 0xF5E2, offset: 0x1E78FF, size: 0x8, addend: 0x0, symName: _ggml_opt_dataset_data, symObjAddr: 0x420, symBinAddr: 0x61EC0, symSize: 0x10 }
  - { offsetInCU: 0xF5FF, offset: 0x1E791C, size: 0x8, addend: 0x0, symName: _ggml_opt_dataset_labels, symObjAddr: 0x430, symBinAddr: 0x61ED0, symSize: 0x10 }
  - { offsetInCU: 0xF7C1, offset: 0x1E7ADE, size: 0x8, addend: 0x0, symName: _ggml_opt_dataset_shuffle, symObjAddr: 0x440, symBinAddr: 0x61EE0, symSize: 0x1F0 }
  - { offsetInCU: 0xFE55, offset: 0x1E8172, size: 0x8, addend: 0x0, symName: _ggml_opt_dataset_get_batch, symObjAddr: 0x630, symBinAddr: 0x620D0, symSize: 0x2F0 }
  - { offsetInCU: 0x100EC, offset: 0x1E8409, size: 0x8, addend: 0x0, symName: _ggml_opt_dataset_get_batch_host, symObjAddr: 0x920, symBinAddr: 0x623C0, symSize: 0x270 }
  - { offsetInCU: 0x10259, offset: 0x1E8576, size: 0x8, addend: 0x0, symName: _ggml_opt_get_default_optimizer_params, symObjAddr: 0xB90, symBinAddr: 0x62630, symSize: 0x20 }
  - { offsetInCU: 0x1028F, offset: 0x1E85AC, size: 0x8, addend: 0x0, symName: _ggml_opt_get_constant_optimizer_params, symObjAddr: 0xBB0, symBinAddr: 0x62650, symSize: 0x20 }
  - { offsetInCU: 0x102B8, offset: 0x1E85D5, size: 0x8, addend: 0x0, symName: _ggml_opt_default_params, symObjAddr: 0xBD0, symBinAddr: 0x62670, symSize: 0x40 }
  - { offsetInCU: 0x10637, offset: 0x1E8954, size: 0x8, addend: 0x0, symName: _ggml_opt_init, symObjAddr: 0xC10, symBinAddr: 0x626B0, symSize: 0x270 }
  - { offsetInCU: 0x108AE, offset: 0x1E8BCB, size: 0x8, addend: 0x0, symName: __ZL14ggml_opt_buildP16ggml_opt_context, symObjAddr: 0xE80, symBinAddr: 0x62920, symSize: 0xEC0 }
  - { offsetInCU: 0x139B6, offset: 0x1EBCD3, size: 0x8, addend: 0x0, symName: __ZNSt3__16vectorIP11ggml_tensorNS_9allocatorIS2_EEE8__appendEm, symObjAddr: 0x4010, symBinAddr: 0x65AB0, symSize: 0x240 }
  - { offsetInCU: 0x140AF, offset: 0x1EC3CC, size: 0x8, addend: 0x0, symName: __ZL10map_tensorRNSt3__13mapIP11ggml_tensorS2_NS_4lessIS2_EENS_9allocatorINS_4pairIKS2_S2_EEEEEEP12ggml_contextS2_, symObjAddr: 0x4330, symBinAddr: 0x65CF0, symSize: 0x390 }
  - { offsetInCU: 0x141B8, offset: 0x1EC4D5, size: 0x8, addend: 0x0, symName: _ggml_opt_free, symObjAddr: 0x1D40, symBinAddr: 0x637E0, symSize: 0x90 }
  - { offsetInCU: 0x14655, offset: 0x1EC972, size: 0x8, addend: 0x0, symName: _ggml_opt_reset, symObjAddr: 0x1DD0, symBinAddr: 0x63870, symSize: 0x40 }
  - { offsetInCU: 0x146AB, offset: 0x1EC9C8, size: 0x8, addend: 0x0, symName: _ggml_opt_static_graphs, symObjAddr: 0x1E10, symBinAddr: 0x638B0, symSize: 0x10 }
  - { offsetInCU: 0x146C8, offset: 0x1EC9E5, size: 0x8, addend: 0x0, symName: _ggml_opt_inputs, symObjAddr: 0x1E20, symBinAddr: 0x638C0, symSize: 0x10 }
  - { offsetInCU: 0x146E5, offset: 0x1ECA02, size: 0x8, addend: 0x0, symName: _ggml_opt_outputs, symObjAddr: 0x1E30, symBinAddr: 0x638D0, symSize: 0x10 }
  - { offsetInCU: 0x14710, offset: 0x1ECA2D, size: 0x8, addend: 0x0, symName: _ggml_opt_labels, symObjAddr: 0x1E40, symBinAddr: 0x638E0, symSize: 0x10 }
  - { offsetInCU: 0x1473B, offset: 0x1ECA58, size: 0x8, addend: 0x0, symName: _ggml_opt_loss, symObjAddr: 0x1E50, symBinAddr: 0x638F0, symSize: 0x10 }
  - { offsetInCU: 0x14766, offset: 0x1ECA83, size: 0x8, addend: 0x0, symName: _ggml_opt_pred, symObjAddr: 0x1E60, symBinAddr: 0x63900, symSize: 0x10 }
  - { offsetInCU: 0x14791, offset: 0x1ECAAE, size: 0x8, addend: 0x0, symName: _ggml_opt_ncorrect, symObjAddr: 0x1E70, symBinAddr: 0x63910, symSize: 0x10 }
  - { offsetInCU: 0x147BC, offset: 0x1ECAD9, size: 0x8, addend: 0x0, symName: _ggml_opt_grad_acc, symObjAddr: 0x1E80, symBinAddr: 0x63920, symSize: 0x20 }
  - { offsetInCU: 0x1490D, offset: 0x1ECC2A, size: 0x8, addend: 0x0, symName: _ggml_opt_result_init, symObjAddr: 0x1EA0, symBinAddr: 0x63940, symSize: 0x30 }
  - { offsetInCU: 0x14BC8, offset: 0x1ECEE5, size: 0x8, addend: 0x0, symName: _ggml_opt_result_free, symObjAddr: 0x1ED0, symBinAddr: 0x63970, symSize: 0x50 }
  - { offsetInCU: 0x14F48, offset: 0x1ED265, size: 0x8, addend: 0x0, symName: _ggml_opt_result_reset, symObjAddr: 0x1F20, symBinAddr: 0x639C0, symSize: 0x30 }
  - { offsetInCU: 0x15081, offset: 0x1ED39E, size: 0x8, addend: 0x0, symName: _ggml_opt_result_ndata, symObjAddr: 0x1F50, symBinAddr: 0x639F0, symSize: 0x10 }
  - { offsetInCU: 0x150D9, offset: 0x1ED3F6, size: 0x8, addend: 0x0, symName: _ggml_opt_result_loss, symObjAddr: 0x1F60, symBinAddr: 0x63A00, symSize: 0x100 }
  - { offsetInCU: 0x151C2, offset: 0x1ED4DF, size: 0x8, addend: 0x0, symName: _ggml_opt_result_pred, symObjAddr: 0x2060, symBinAddr: 0x63B00, symSize: 0x190 }
  - { offsetInCU: 0x1521A, offset: 0x1ED537, size: 0x8, addend: 0x0, symName: _ggml_opt_result_accuracy, symObjAddr: 0x21F0, symBinAddr: 0x63C90, symSize: 0x80 }
  - { offsetInCU: 0x15247, offset: 0x1ED564, size: 0x8, addend: 0x0, symName: _ggml_opt_prepare_alloc, symObjAddr: 0x2270, symBinAddr: 0x63D10, symSize: 0x50 }
  - { offsetInCU: 0x155D3, offset: 0x1ED8F0, size: 0x8, addend: 0x0, symName: _ggml_opt_alloc, symObjAddr: 0x22C0, symBinAddr: 0x63D60, symSize: 0x4F0 }
  - { offsetInCU: 0x15C0D, offset: 0x1EDF2A, size: 0x8, addend: 0x0, symName: __ZL10map_tensorRNSt3__13mapIP11ggml_tensorS2_NS_4lessIS2_EENS_9allocatorINS_4pairIKS2_S2_EEEEEEP12ggml_contextS2_, symObjAddr: 0x4330, symBinAddr: 0x65CF0, symSize: 0x390 }
  - { offsetInCU: 0x164E4, offset: 0x1EE801, size: 0x8, addend: 0x0, symName: __ZNSt3__16__treeINS_12__value_typeIP11ggml_tensorS3_EENS_19__map_value_compareIS3_S4_NS_4lessIS3_EELb1EEENS_9allocatorIS4_EEE7destroyEPNS_11__tree_nodeIS4_PvEE, symObjAddr: 0x4820, symBinAddr: 0x66080, symSize: 0x40 }
  - { offsetInCU: 0x16C02, offset: 0x1EEF1F, size: 0x8, addend: 0x0, symName: _ggml_opt_eval, symObjAddr: 0x27B0, symBinAddr: 0x64250, symSize: 0x810 }
  - { offsetInCU: 0x183A4, offset: 0x1F06C1, size: 0x8, addend: 0x0, symName: _ggml_opt_epoch, symObjAddr: 0x2FC0, symBinAddr: 0x64A60, symSize: 0x340 }
  - { offsetInCU: 0x188C3, offset: 0x1F0BE0, size: 0x8, addend: 0x0, symName: _ggml_opt_epoch_callback_progress_bar, symObjAddr: 0x3300, symBinAddr: 0x64DA0, symSize: 0x640 }
  - { offsetInCU: 0x18C4F, offset: 0x1F0F6C, size: 0x8, addend: 0x0, symName: _ggml_opt_fit, symObjAddr: 0x3940, symBinAddr: 0x653E0, symSize: 0x6D0 }
  - { offsetInCU: 0x1A9EB, offset: 0x1F2D08, size: 0x8, addend: 0x0, symName: __ZNKSt3__16vectorIxNS_9allocatorIxEEE20__throw_length_errorB8ue170006Ev, symObjAddr: 0x4AA0, symBinAddr: 0x66300, symSize: 0x10 }
  - { offsetInCU: 0x1AA15, offset: 0x1F2D32, size: 0x8, addend: 0x0, symName: __ZNSt3__124uniform_int_distributionIlEclINS_23mersenne_twister_engineIjLm32ELm624ELm397ELm31ELj2567483615ELm11ELj4294967295ELm7ELj2636928640ELm15ELj4022730752ELm18ELj1812433253EEEEElRT_RKNS1_10param_typeE, symObjAddr: 0x4AB0, symBinAddr: 0x66310, symSize: 0x250 }
  - { offsetInCU: 0x1AABE, offset: 0x1F2DDB, size: 0x8, addend: 0x0, symName: __ZNSt3__125__independent_bits_engineINS_23mersenne_twister_engineIjLm32ELm624ELm397ELm31ELj2567483615ELm11ELj4294967295ELm7ELj2636928640ELm15ELj4022730752ELm18ELj1812433253EEEmE6__evalENS_17integral_constantIbLb1EEE, symObjAddr: 0x4D00, symBinAddr: 0x66560, symSize: 0x270 }
  - { offsetInCU: 0x26, offset: 0x1F37F3, size: 0x8, addend: 0x0, symName: _quantize_row_q4_0_ref, symObjAddr: 0x0, symBinAddr: 0x667D0, symSize: 0x3F0 }
  - { offsetInCU: 0x34, offset: 0x1F3801, size: 0x8, addend: 0x0, symName: _quantize_row_q4_0_ref, symObjAddr: 0x0, symBinAddr: 0x667D0, symSize: 0x3F0 }
  - { offsetInCU: 0x284, offset: 0x1F3A51, size: 0x8, addend: 0x0, symName: _quantize_row_q5_0_ref, symObjAddr: 0x7D0, symBinAddr: 0x66FA0, symSize: 0x630 }
  - { offsetInCU: 0x4D7, offset: 0x1F3CA4, size: 0x8, addend: 0x0, symName: _dequantize_row_q4_0, symObjAddr: 0x2100, symBinAddr: 0x688D0, symSize: 0x140 }
  - { offsetInCU: 0x5C1, offset: 0x1F3D8E, size: 0x8, addend: 0x0, symName: _dequantize_row_q4_1, symObjAddr: 0x2240, symBinAddr: 0x68A10, symSize: 0x150 }
  - { offsetInCU: 0x6C2, offset: 0x1F3E8F, size: 0x8, addend: 0x0, symName: _dequantize_row_q5_0, symObjAddr: 0x2390, symBinAddr: 0x68B60, symSize: 0x350 }
  - { offsetInCU: 0x7D2, offset: 0x1F3F9F, size: 0x8, addend: 0x0, symName: _dequantize_row_q5_1, symObjAddr: 0x26E0, symBinAddr: 0x68EB0, symSize: 0x340 }
  - { offsetInCU: 0x8E7, offset: 0x1F40B4, size: 0x8, addend: 0x0, symName: _dequantize_row_q8_0, symObjAddr: 0x2A20, symBinAddr: 0x691F0, symSize: 0x150 }
  - { offsetInCU: 0x9AE, offset: 0x1F417B, size: 0x8, addend: 0x0, symName: _iq2xs_init_impl, symObjAddr: 0x1C5C0, symBinAddr: 0x82D90, symSize: 0x6E0 }
  - { offsetInCU: 0x9D2, offset: 0x1F419F, size: 0x8, addend: 0x0, symName: _iq2xs_init_impl.kgrid_2bit_256, symObjAddr: 0x38A20, symBinAddr: 0x16E170, symSize: 0x0 }
  - { offsetInCU: 0x9E9, offset: 0x1F41B6, size: 0x8, addend: 0x0, symName: _iq2xs_init_impl.kgrid_2bit_512, symObjAddr: 0x38C20, symBinAddr: 0x16E370, symSize: 0x0 }
  - { offsetInCU: 0xA00, offset: 0x1F41CD, size: 0x8, addend: 0x0, symName: _iq2xs_init_impl.kgrid_1bit_2048, symObjAddr: 0x39020, symBinAddr: 0x16E770, symSize: 0x0 }
  - { offsetInCU: 0xA17, offset: 0x1F41E4, size: 0x8, addend: 0x0, symName: _iq2xs_init_impl.kgrid_2bit_1024, symObjAddr: 0x3A020, symBinAddr: 0x16F770, symSize: 0x0 }
  - { offsetInCU: 0xF84, offset: 0x1F4751, size: 0x8, addend: 0x0, symName: _iq3xs_init_impl, symObjAddr: 0x21790, symBinAddr: 0x87F60, symSize: 0x560 }
  - { offsetInCU: 0xFA8, offset: 0x1F4775, size: 0x8, addend: 0x0, symName: _iq3xs_init_impl.kgrid_256, symObjAddr: 0x3A820, symBinAddr: 0x16FF70, symSize: 0x0 }
  - { offsetInCU: 0xFBF, offset: 0x1F478C, size: 0x8, addend: 0x0, symName: _iq3xs_init_impl.kgrid_512, symObjAddr: 0x3AA20, symBinAddr: 0x170170, symSize: 0x0 }
  - { offsetInCU: 0x14A6, offset: 0x1F4C73, size: 0x8, addend: 0x0, symName: _iq2xxs_grid, symObjAddr: 0x30590, symBinAddr: 0x165CE0, symSize: 0x0 }
  - { offsetInCU: 0x14E5, offset: 0x1F4CB2, size: 0x8, addend: 0x0, symName: _ksigns_iq2xs, symObjAddr: 0x30D90, symBinAddr: 0x1664E0, symSize: 0x0 }
  - { offsetInCU: 0x1523, offset: 0x1F4CF0, size: 0x8, addend: 0x0, symName: _iq2xs_grid, symObjAddr: 0x30E10, symBinAddr: 0x166560, symSize: 0x0 }
  - { offsetInCU: 0x1549, offset: 0x1F4D16, size: 0x8, addend: 0x0, symName: _iq2s_grid, symObjAddr: 0x31E10, symBinAddr: 0x167560, symSize: 0x0 }
  - { offsetInCU: 0x156F, offset: 0x1F4D3C, size: 0x8, addend: 0x0, symName: _iq3xxs_grid, symObjAddr: 0x33E10, symBinAddr: 0x169560, symSize: 0x0 }
  - { offsetInCU: 0x15AE, offset: 0x1F4D7B, size: 0x8, addend: 0x0, symName: _iq3s_grid, symObjAddr: 0x34210, symBinAddr: 0x169960, symSize: 0x0 }
  - { offsetInCU: 0x15D4, offset: 0x1F4DA1, size: 0x8, addend: 0x0, symName: _iq1s_grid, symObjAddr: 0x34A10, symBinAddr: 0x16A160, symSize: 0x0 }
  - { offsetInCU: 0x15FA, offset: 0x1F4DC7, size: 0x8, addend: 0x0, symName: _kvalues_iq4nl, symObjAddr: 0x38A10, symBinAddr: 0x16E160, symSize: 0x0 }
  - { offsetInCU: 0x1638, offset: 0x1F4E05, size: 0x8, addend: 0x0, symName: _iq2_data, symObjAddr: 0xB98E0, symBinAddr: 0x211D10, symSize: 0x0 }
  - { offsetInCU: 0x16AD, offset: 0x1F4E7A, size: 0x8, addend: 0x0, symName: _iq3_data, symObjAddr: 0xB9940, symBinAddr: 0x211D70, symSize: 0x0 }
  - { offsetInCU: 0x2257, offset: 0x1F5A24, size: 0x8, addend: 0x0, symName: _quantize_row_q4_1_ref, symObjAddr: 0x3F0, symBinAddr: 0x66BC0, symSize: 0x3E0 }
  - { offsetInCU: 0x23EF, offset: 0x1F5BBC, size: 0x8, addend: 0x0, symName: _quantize_row_q5_1_ref, symObjAddr: 0xE00, symBinAddr: 0x675D0, symSize: 0x590 }
  - { offsetInCU: 0x2597, offset: 0x1F5D64, size: 0x8, addend: 0x0, symName: _quantize_row_q8_0_ref, symObjAddr: 0x1390, symBinAddr: 0x67B60, symSize: 0x620 }
  - { offsetInCU: 0x279E, offset: 0x1F5F6B, size: 0x8, addend: 0x0, symName: _quantize_row_q8_1_ref, symObjAddr: 0x19B0, symBinAddr: 0x68180, symSize: 0x750 }
  - { offsetInCU: 0x2D55, offset: 0x1F6522, size: 0x8, addend: 0x0, symName: _quantize_row_q2_K_ref, symObjAddr: 0x2B70, symBinAddr: 0x69340, symSize: 0x1100 }
  - { offsetInCU: 0x3510, offset: 0x1F6CDD, size: 0x8, addend: 0x0, symName: _dequantize_row_q2_K, symObjAddr: 0x3C70, symBinAddr: 0x6A440, symSize: 0x550 }
  - { offsetInCU: 0x3CF5, offset: 0x1F74C2, size: 0x8, addend: 0x0, symName: _quantize_q2_K, symObjAddr: 0x41C0, symBinAddr: 0x6A990, symSize: 0x32F0 }
  - { offsetInCU: 0x4988, offset: 0x1F8155, size: 0x8, addend: 0x0, symName: _quantize_row_q3_K_ref, symObjAddr: 0x74B0, symBinAddr: 0x6DC80, symSize: 0x11B0 }
  - { offsetInCU: 0x4EB6, offset: 0x1F8683, size: 0x8, addend: 0x0, symName: _dequantize_row_q3_K, symObjAddr: 0x8660, symBinAddr: 0x6EE30, symSize: 0x890 }
  - { offsetInCU: 0x5430, offset: 0x1F8BFD, size: 0x8, addend: 0x0, symName: _quantize_q3_K, symObjAddr: 0x8EF0, symBinAddr: 0x6F6C0, symSize: 0x1780 }
  - { offsetInCU: 0x5C2C, offset: 0x1F93F9, size: 0x8, addend: 0x0, symName: _quantize_row_q4_K_ref, symObjAddr: 0xA670, symBinAddr: 0x70E40, symSize: 0xE00 }
  - { offsetInCU: 0x61F1, offset: 0x1F99BE, size: 0x8, addend: 0x0, symName: _dequantize_row_q4_K, symObjAddr: 0xB470, symBinAddr: 0x71C40, symSize: 0x9C0 }
  - { offsetInCU: 0x6636, offset: 0x1F9E03, size: 0x8, addend: 0x0, symName: _quantize_q4_K, symObjAddr: 0xBE30, symBinAddr: 0x72600, symSize: 0x2890 }
  - { offsetInCU: 0x7157, offset: 0x1FA924, size: 0x8, addend: 0x0, symName: _quantize_row_q5_K_ref, symObjAddr: 0xE6C0, symBinAddr: 0x74E90, symSize: 0xE60 }
  - { offsetInCU: 0x7778, offset: 0x1FAF45, size: 0x8, addend: 0x0, symName: _dequantize_row_q5_K, symObjAddr: 0xF520, symBinAddr: 0x75CF0, symSize: 0x910 }
  - { offsetInCU: 0x7C22, offset: 0x1FB3EF, size: 0x8, addend: 0x0, symName: _quantize_q5_K, symObjAddr: 0xFE30, symBinAddr: 0x76600, symSize: 0x2990 }
  - { offsetInCU: 0x8778, offset: 0x1FBF45, size: 0x8, addend: 0x0, symName: _quantize_row_q6_K_ref, symObjAddr: 0x127C0, symBinAddr: 0x78F90, symSize: 0xFC0 }
  - { offsetInCU: 0x8CD4, offset: 0x1FC4A1, size: 0x8, addend: 0x0, symName: _dequantize_row_q6_K, symObjAddr: 0x13780, symBinAddr: 0x79F50, symSize: 0x410 }
  - { offsetInCU: 0x8FCA, offset: 0x1FC797, size: 0x8, addend: 0x0, symName: _quantize_q6_K, symObjAddr: 0x13B90, symBinAddr: 0x7A360, symSize: 0x10B0 }
  - { offsetInCU: 0x9607, offset: 0x1FCDD4, size: 0x8, addend: 0x0, symName: _quantize_q4_0, symObjAddr: 0x14C40, symBinAddr: 0x7B410, symSize: 0xAC0 }
  - { offsetInCU: 0x9BA2, offset: 0x1FD36F, size: 0x8, addend: 0x0, symName: _quantize_q4_1, symObjAddr: 0x15700, symBinAddr: 0x7BED0, symSize: 0x8D0 }
  - { offsetInCU: 0xA15D, offset: 0x1FD92A, size: 0x8, addend: 0x0, symName: _quantize_q5_0, symObjAddr: 0x15FD0, symBinAddr: 0x7C7A0, symSize: 0xCA0 }
  - { offsetInCU: 0xA731, offset: 0x1FDEFE, size: 0x8, addend: 0x0, symName: _quantize_q5_1, symObjAddr: 0x16C70, symBinAddr: 0x7D440, symSize: 0xA80 }
  - { offsetInCU: 0xABE0, offset: 0x1FE3AD, size: 0x8, addend: 0x0, symName: _quantize_q8_0, symObjAddr: 0x176F0, symBinAddr: 0x7DEC0, symSize: 0x60 }
  - { offsetInCU: 0xACA3, offset: 0x1FE470, size: 0x8, addend: 0x0, symName: _quantize_row_tq1_0_ref, symObjAddr: 0x17750, symBinAddr: 0x7DF20, symSize: 0x510 }
  - { offsetInCU: 0xB04C, offset: 0x1FE819, size: 0x8, addend: 0x0, symName: _quantize_row_tq2_0_ref, symObjAddr: 0x17C60, symBinAddr: 0x7E430, symSize: 0x2A0 }
  - { offsetInCU: 0xB2D2, offset: 0x1FEA9F, size: 0x8, addend: 0x0, symName: _quantize_tq1_0, symObjAddr: 0x17F00, symBinAddr: 0x7E6D0, symSize: 0x60 }
  - { offsetInCU: 0xB396, offset: 0x1FEB63, size: 0x8, addend: 0x0, symName: _quantize_tq2_0, symObjAddr: 0x17F60, symBinAddr: 0x7E730, symSize: 0x60 }
  - { offsetInCU: 0xB45A, offset: 0x1FEC27, size: 0x8, addend: 0x0, symName: _dequantize_row_tq1_0, symObjAddr: 0x17FC0, symBinAddr: 0x7E790, symSize: 0x1400 }
  - { offsetInCU: 0xB682, offset: 0x1FEE4F, size: 0x8, addend: 0x0, symName: _dequantize_row_tq2_0, symObjAddr: 0x193C0, symBinAddr: 0x7FB90, symSize: 0x740 }
  - { offsetInCU: 0xB7B4, offset: 0x1FEF81, size: 0x8, addend: 0x0, symName: _dequantize_row_iq2_xxs, symObjAddr: 0x19B00, symBinAddr: 0x802D0, symSize: 0x530 }
  - { offsetInCU: 0xB90A, offset: 0x1FF0D7, size: 0x8, addend: 0x0, symName: _dequantize_row_iq2_xs, symObjAddr: 0x1A030, symBinAddr: 0x80800, symSize: 0x2C0 }
  - { offsetInCU: 0xBA41, offset: 0x1FF20E, size: 0x8, addend: 0x0, symName: _dequantize_row_iq2_s, symObjAddr: 0x1A2F0, symBinAddr: 0x80AC0, symSize: 0x280 }
  - { offsetInCU: 0xBBAF, offset: 0x1FF37C, size: 0x8, addend: 0x0, symName: _dequantize_row_iq3_xxs, symObjAddr: 0x1A570, symBinAddr: 0x80D40, symSize: 0x520 }
  - { offsetInCU: 0xBD34, offset: 0x1FF501, size: 0x8, addend: 0x0, symName: _dequantize_row_iq3_s, symObjAddr: 0x1AA90, symBinAddr: 0x81260, symSize: 0x410 }
  - { offsetInCU: 0xBF18, offset: 0x1FF6E5, size: 0x8, addend: 0x0, symName: _dequantize_row_iq1_s, symObjAddr: 0x1AEA0, symBinAddr: 0x81670, symSize: 0x230 }
  - { offsetInCU: 0xC07F, offset: 0x1FF84C, size: 0x8, addend: 0x0, symName: _dequantize_row_iq1_m, symObjAddr: 0x1B0D0, symBinAddr: 0x818A0, symSize: 0x330 }
  - { offsetInCU: 0xC271, offset: 0x1FFA3E, size: 0x8, addend: 0x0, symName: _dequantize_row_iq4_nl, symObjAddr: 0x1B400, symBinAddr: 0x81BD0, symSize: 0x3D0 }
  - { offsetInCU: 0xC32E, offset: 0x1FFAFB, size: 0x8, addend: 0x0, symName: _dequantize_row_iq4_xs, symObjAddr: 0x1B7D0, symBinAddr: 0x81FA0, symSize: 0x4E0 }
  - { offsetInCU: 0xC44E, offset: 0x1FFC1B, size: 0x8, addend: 0x0, symName: _quantize_row_q8_K_ref, symObjAddr: 0x1BCB0, symBinAddr: 0x82480, symSize: 0x790 }
  - { offsetInCU: 0xC5DD, offset: 0x1FFDAA, size: 0x8, addend: 0x0, symName: _dequantize_row_q8_K, symObjAddr: 0x1C440, symBinAddr: 0x82C10, symSize: 0x180 }
  - { offsetInCU: 0xC70E, offset: 0x1FFEDB, size: 0x8, addend: 0x0, symName: _iq2_compare_func, symObjAddr: 0x1CCA0, symBinAddr: 0x83470, symSize: 0x30 }
  - { offsetInCU: 0xC764, offset: 0x1FFF31, size: 0x8, addend: 0x0, symName: _iq2xs_free_impl, symObjAddr: 0x1CCD0, symBinAddr: 0x834A0, symSize: 0x100 }
  - { offsetInCU: 0xCC94, offset: 0x200461, size: 0x8, addend: 0x0, symName: _quantize_iq2_xxs, symObjAddr: 0x1CDD0, symBinAddr: 0x835A0, symSize: 0x2210 }
  - { offsetInCU: 0xD6DD, offset: 0x200EAA, size: 0x8, addend: 0x0, symName: _iq2_find_best_neighbour, symObjAddr: 0x2D550, symBinAddr: 0x93D20, symSize: 0x2B0 }
  - { offsetInCU: 0xDE08, offset: 0x2015D5, size: 0x8, addend: 0x0, symName: _quantize_iq2_xs, symObjAddr: 0x1EFE0, symBinAddr: 0x857B0, symSize: 0x27B0 }
  - { offsetInCU: 0xE7AC, offset: 0x201F79, size: 0x8, addend: 0x0, symName: _iq3_compare_func, symObjAddr: 0x21CF0, symBinAddr: 0x884C0, symSize: 0x30 }
  - { offsetInCU: 0xE802, offset: 0x201FCF, size: 0x8, addend: 0x0, symName: _iq3xs_free_impl, symObjAddr: 0x21D20, symBinAddr: 0x884F0, symSize: 0xA0 }
  - { offsetInCU: 0xE865, offset: 0x202032, size: 0x8, addend: 0x0, symName: _quantize_iq3_xxs, symObjAddr: 0x21DC0, symBinAddr: 0x88590, symSize: 0xB0 }
  - { offsetInCU: 0xE953, offset: 0x202120, size: 0x8, addend: 0x0, symName: _quantize_row_iq3_xxs_impl, symObjAddr: 0x21E70, symBinAddr: 0x88640, symSize: 0x1820 }
  - { offsetInCU: 0xF60B, offset: 0x202DD8, size: 0x8, addend: 0x0, symName: _quantize_row_iq3_xxs_ref, symObjAddr: 0x23690, symBinAddr: 0x89E60, symSize: 0x10 }
  - { offsetInCU: 0xFBB7, offset: 0x203384, size: 0x8, addend: 0x0, symName: _quantize_iq3_s, symObjAddr: 0x236A0, symBinAddr: 0x89E70, symSize: 0x1B70 }
  - { offsetInCU: 0x1059E, offset: 0x203D6B, size: 0x8, addend: 0x0, symName: _quantize_row_iq3_s_ref, symObjAddr: 0x25210, symBinAddr: 0x8B9E0, symSize: 0x20 }
  - { offsetInCU: 0x10A1C, offset: 0x2041E9, size: 0x8, addend: 0x0, symName: _quantize_iq1_s, symObjAddr: 0x25230, symBinAddr: 0x8BA00, symSize: 0x1990 }
  - { offsetInCU: 0x111BE, offset: 0x20498B, size: 0x8, addend: 0x0, symName: _iq1_find_best_neighbour2, symObjAddr: 0x2D830, symBinAddr: 0x94000, symSize: 0x7C1 }
  - { offsetInCU: 0x11A12, offset: 0x2051DF, size: 0x8, addend: 0x0, symName: _quantize_iq1_m, symObjAddr: 0x26BC0, symBinAddr: 0x8D390, symSize: 0x1F60 }
  - { offsetInCU: 0x12235, offset: 0x205A02, size: 0x8, addend: 0x0, symName: _quantize_iq4_nl, symObjAddr: 0x28B20, symBinAddr: 0x8F2F0, symSize: 0x220 }
  - { offsetInCU: 0x123E1, offset: 0x205BAE, size: 0x8, addend: 0x0, symName: _quantize_row_iq4_nl_impl, symObjAddr: 0x28D40, symBinAddr: 0x8F510, symSize: 0xF60 }
  - { offsetInCU: 0x12C85, offset: 0x206452, size: 0x8, addend: 0x0, symName: _quantize_row_iq4_nl_ref, symObjAddr: 0x29CA0, symBinAddr: 0x90470, symSize: 0x140 }
  - { offsetInCU: 0x12DB6, offset: 0x206583, size: 0x8, addend: 0x0, symName: _quantize_iq4_xs, symObjAddr: 0x29DE0, symBinAddr: 0x905B0, symSize: 0x290 }
  - { offsetInCU: 0x12FB1, offset: 0x20677E, size: 0x8, addend: 0x0, symName: _quantize_row_iq4_xs_ref, symObjAddr: 0x2A070, symBinAddr: 0x90840, symSize: 0x1A0 }
  - { offsetInCU: 0x135A0, offset: 0x206D6D, size: 0x8, addend: 0x0, symName: _quantize_iq2_s, symObjAddr: 0x2A210, symBinAddr: 0x909E0, symSize: 0x2390 }
  - { offsetInCU: 0x13EF9, offset: 0x2076C6, size: 0x8, addend: 0x0, symName: _quantize_row_iq2_s_ref, symObjAddr: 0x2C5A0, symBinAddr: 0x92D70, symSize: 0x20 }
  - { offsetInCU: 0x14031, offset: 0x2077FE, size: 0x8, addend: 0x0, symName: _ggml_validate_row_data, symObjAddr: 0x2C5C0, symBinAddr: 0x92D90, symSize: 0xF90 }
  - { offsetInCU: 0x15055, offset: 0x208822, size: 0x8, addend: 0x0, symName: _iq1_sort_helper, symObjAddr: 0x2D800, symBinAddr: 0x93FD0, symSize: 0x30 }
  - { offsetInCU: 0x3F, offset: 0x208ACB, size: 0x8, addend: 0x0, symName: _ggml_critical_section_mutex, symObjAddr: 0x60, symBinAddr: 0x1A5418, symSize: 0x0 }
  - { offsetInCU: 0x2BC4, offset: 0x20B650, size: 0x8, addend: 0x0, symName: _ggml_critical_section_start, symObjAddr: 0x0, symBinAddr: 0x947D0, symSize: 0x20 }
  - { offsetInCU: 0x2BDA, offset: 0x20B666, size: 0x8, addend: 0x0, symName: _ggml_critical_section_end, symObjAddr: 0x20, symBinAddr: 0x947F0, symSize: 0x11 }
  - { offsetInCU: 0x26, offset: 0x20B6A2, size: 0x8, addend: 0x0, symName: _ggml_print_backtrace, symObjAddr: 0x0, symBinAddr: 0x94830, symSize: 0x140 }
  - { offsetInCU: 0xA8, offset: 0x20B724, size: 0x8, addend: 0x0, symName: _ggml_init, symObjAddr: 0x19B0, symBinAddr: 0x961E0, symSize: 0x2B0 }
  - { offsetInCU: 0xD0, offset: 0x20B74C, size: 0x8, addend: 0x0, symName: _ggml_init.is_first_call, symObjAddr: 0x85A28, symBinAddr: 0x211DA0, symSize: 0x0 }
  - { offsetInCU: 0x2D4, offset: 0x20B950, size: 0x8, addend: 0x0, symName: _ggml_hash_size, symObjAddr: 0xDCF0, symBinAddr: 0xA2520, symSize: 0x60 }
  - { offsetInCU: 0x2F5, offset: 0x20B971, size: 0x8, addend: 0x0, symName: _ggml_hash_size.primes, symObjAddr: 0x17B70, symBinAddr: 0x170710, symSize: 0x0 }
  - { offsetInCU: 0x368, offset: 0x20B9E4, size: 0x8, addend: 0x0, symName: _ggml_table_f32_f16, symBinAddr: 0x212160, symSize: 0x0 }
  - { offsetInCU: 0x397, offset: 0x20BA13, size: 0x8, addend: 0x0, symName: _type_traits, symObjAddr: 0x16D00, symBinAddr: 0x1A0320, symSize: 0x0 }
  - { offsetInCU: 0x4CC, offset: 0x20BB48, size: 0x8, addend: 0x0, symName: _GGML_OP_NAME, symObjAddr: 0x17590, symBinAddr: 0x1A0BB0, symSize: 0x0 }
  - { offsetInCU: 0x4F1, offset: 0x20BB6D, size: 0x8, addend: 0x0, symName: _GGML_OP_SYMBOL, symObjAddr: 0x17830, symBinAddr: 0x1A0E50, symSize: 0x0 }
  - { offsetInCU: 0x508, offset: 0x20BB84, size: 0x8, addend: 0x0, symName: _GGML_UNARY_OP_NAME, symObjAddr: 0x17AD0, symBinAddr: 0x1A10F0, symSize: 0x0 }
  - { offsetInCU: 0x52C, offset: 0x20BBA8, size: 0x8, addend: 0x0, symName: _g_logger_state.0, symObjAddr: 0x17D08, symBinAddr: 0x1A5458, symSize: 0x0 }
  - { offsetInCU: 0x537, offset: 0x20BBB3, size: 0x8, addend: 0x0, symName: _g_logger_state.1, symObjAddr: 0x85A30, symBinAddr: 0x211DA8, symSize: 0x0 }
  - { offsetInCU: 0xDEB, offset: 0x20C467, size: 0x8, addend: 0x0, symName: _ggml_print_backtrace, symObjAddr: 0x0, symBinAddr: 0x94830, symSize: 0x140 }
  - { offsetInCU: 0xF56, offset: 0x20C5D2, size: 0x8, addend: 0x0, symName: _ggml_abort, symObjAddr: 0x140, symBinAddr: 0x94970, symSize: 0xE0 }
  - { offsetInCU: 0x12BD, offset: 0x20C939, size: 0x8, addend: 0x0, symName: _ggml_log_internal, symObjAddr: 0x220, symBinAddr: 0x94A50, symSize: 0x1C0 }
  - { offsetInCU: 0x13A3, offset: 0x20CA1F, size: 0x8, addend: 0x0, symName: _ggml_log_callback_default, symObjAddr: 0x3E0, symBinAddr: 0x94C10, symSize: 0x30 }
  - { offsetInCU: 0x1434, offset: 0x20CAB0, size: 0x8, addend: 0x0, symName: _ggml_aligned_malloc, symObjAddr: 0x410, symBinAddr: 0x94C40, symSize: 0xC0 }
  - { offsetInCU: 0x14FB, offset: 0x20CB77, size: 0x8, addend: 0x0, symName: _ggml_aligned_free, symObjAddr: 0x4D0, symBinAddr: 0x94D00, symSize: 0x10 }
  - { offsetInCU: 0x1520, offset: 0x20CB9C, size: 0x8, addend: 0x0, symName: _ggml_status_to_string, symObjAddr: 0x4E0, symBinAddr: 0x94D10, symSize: 0x30 }
  - { offsetInCU: 0x1576, offset: 0x20CBF2, size: 0x8, addend: 0x0, symName: _ggml_fp16_to_fp32, symObjAddr: 0x510, symBinAddr: 0x94D40, symSize: 0x20 }
  - { offsetInCU: 0x1714, offset: 0x20CD90, size: 0x8, addend: 0x0, symName: _ggml_fp32_to_fp16, symObjAddr: 0x530, symBinAddr: 0x94D60, symSize: 0x80 }
  - { offsetInCU: 0x1891, offset: 0x20CF0D, size: 0x8, addend: 0x0, symName: _ggml_bf16_to_fp32, symObjAddr: 0x5B0, symBinAddr: 0x94DE0, symSize: 0x10 }
  - { offsetInCU: 0x1944, offset: 0x20CFC0, size: 0x8, addend: 0x0, symName: _ggml_fp32_to_bf16, symObjAddr: 0x5C0, symBinAddr: 0x94DF0, symSize: 0x40 }
  - { offsetInCU: 0x1997, offset: 0x20D013, size: 0x8, addend: 0x0, symName: _ggml_fp16_to_fp32_row, symObjAddr: 0x600, symBinAddr: 0x94E30, symSize: 0xC0 }
  - { offsetInCU: 0x1A10, offset: 0x20D08C, size: 0x8, addend: 0x0, symName: _ggml_fp32_to_fp16_row, symObjAddr: 0x6C0, symBinAddr: 0x94EF0, symSize: 0x200 }
  - { offsetInCU: 0x1B43, offset: 0x20D1BF, size: 0x8, addend: 0x0, symName: _ggml_bf16_to_fp32_row, symObjAddr: 0x8C0, symBinAddr: 0x950F0, symSize: 0x160 }
  - { offsetInCU: 0x1BB2, offset: 0x20D22E, size: 0x8, addend: 0x0, symName: _ggml_fp32_to_bf16_row_ref, symObjAddr: 0xA20, symBinAddr: 0x95250, symSize: 0x190 }
  - { offsetInCU: 0x1C11, offset: 0x20D28D, size: 0x8, addend: 0x0, symName: _ggml_fp32_to_bf16_row, symObjAddr: 0xBB0, symBinAddr: 0x953E0, symSize: 0x190 }
  - { offsetInCU: 0x1C80, offset: 0x20D2FC, size: 0x8, addend: 0x0, symName: _ggml_guid_matches, symObjAddr: 0xD40, symBinAddr: 0x95570, symSize: 0x20 }
  - { offsetInCU: 0x1CBA, offset: 0x20D336, size: 0x8, addend: 0x0, symName: _ggml_time_init, symObjAddr: 0xD60, symBinAddr: 0x95590, symSize: 0x10 }
  - { offsetInCU: 0x1CD1, offset: 0x20D34D, size: 0x8, addend: 0x0, symName: _ggml_time_ms, symObjAddr: 0xD70, symBinAddr: 0x955A0, symSize: 0x50 }
  - { offsetInCU: 0x1D7B, offset: 0x20D3F7, size: 0x8, addend: 0x0, symName: _ggml_time_us, symObjAddr: 0xDC0, symBinAddr: 0x955F0, symSize: 0x50 }
  - { offsetInCU: 0x1DC3, offset: 0x20D43F, size: 0x8, addend: 0x0, symName: _ggml_cycles, symObjAddr: 0xE10, symBinAddr: 0x95640, symSize: 0x10 }
  - { offsetInCU: 0x1DFD, offset: 0x20D479, size: 0x8, addend: 0x0, symName: _ggml_cycles_per_ms, symObjAddr: 0xE20, symBinAddr: 0x95650, symSize: 0x10 }
  - { offsetInCU: 0x1E18, offset: 0x20D494, size: 0x8, addend: 0x0, symName: _ggml_fopen, symObjAddr: 0xE30, symBinAddr: 0x95660, symSize: 0x10 }
  - { offsetInCU: 0x1E3D, offset: 0x20D4B9, size: 0x8, addend: 0x0, symName: _ggml_get_type_traits, symObjAddr: 0xE40, symBinAddr: 0x95670, symSize: 0x40 }
  - { offsetInCU: 0x1E81, offset: 0x20D4FD, size: 0x8, addend: 0x0, symName: _ggml_print_object, symObjAddr: 0xE80, symBinAddr: 0x956B0, symSize: 0x30 }
  - { offsetInCU: 0x1ED9, offset: 0x20D555, size: 0x8, addend: 0x0, symName: _ggml_print_objects, symObjAddr: 0xEB0, symBinAddr: 0x956E0, symSize: 0x90 }
  - { offsetInCU: 0x1F80, offset: 0x20D5FC, size: 0x8, addend: 0x0, symName: _ggml_nelements, symObjAddr: 0xF40, symBinAddr: 0x95770, symSize: 0x20 }
  - { offsetInCU: 0x1F9D, offset: 0x20D619, size: 0x8, addend: 0x0, symName: _ggml_nrows, symObjAddr: 0xF60, symBinAddr: 0x95790, symSize: 0x20 }
  - { offsetInCU: 0x2000, offset: 0x20D67C, size: 0x8, addend: 0x0, symName: _ggml_nbytes, symObjAddr: 0xF80, symBinAddr: 0x957B0, symSize: 0xB0 }
  - { offsetInCU: 0x2087, offset: 0x20D703, size: 0x8, addend: 0x0, symName: _ggml_blck_size, symObjAddr: 0x1030, symBinAddr: 0x95860, symSize: 0x20 }
  - { offsetInCU: 0x20A4, offset: 0x20D720, size: 0x8, addend: 0x0, symName: _ggml_type_size, symObjAddr: 0x1050, symBinAddr: 0x95880, symSize: 0x20 }
  - { offsetInCU: 0x2133, offset: 0x20D7AF, size: 0x8, addend: 0x0, symName: _ggml_nbytes_pad, symObjAddr: 0x1070, symBinAddr: 0x958A0, symSize: 0xB0 }
  - { offsetInCU: 0x21E1, offset: 0x20D85D, size: 0x8, addend: 0x0, symName: _ggml_row_size, symObjAddr: 0x1120, symBinAddr: 0x95950, symSize: 0x40 }
  - { offsetInCU: 0x2244, offset: 0x20D8C0, size: 0x8, addend: 0x0, symName: _ggml_type_sizef, symObjAddr: 0x1160, symBinAddr: 0x95990, symSize: 0x50 }
  - { offsetInCU: 0x226F, offset: 0x20D8EB, size: 0x8, addend: 0x0, symName: _ggml_type_name, symObjAddr: 0x11B0, symBinAddr: 0x959E0, symSize: 0x30 }
  - { offsetInCU: 0x228C, offset: 0x20D908, size: 0x8, addend: 0x0, symName: _ggml_is_quantized, symObjAddr: 0x11E0, symBinAddr: 0x95A10, symSize: 0x20 }
  - { offsetInCU: 0x22A9, offset: 0x20D925, size: 0x8, addend: 0x0, symName: _ggml_op_name, symObjAddr: 0x1200, symBinAddr: 0x95A30, symSize: 0x20 }
  - { offsetInCU: 0x22C6, offset: 0x20D942, size: 0x8, addend: 0x0, symName: _ggml_op_symbol, symObjAddr: 0x1220, symBinAddr: 0x95A50, symSize: 0x20 }
  - { offsetInCU: 0x22E3, offset: 0x20D95F, size: 0x8, addend: 0x0, symName: _ggml_unary_op_name, symObjAddr: 0x1240, symBinAddr: 0x95A70, symSize: 0x20 }
  - { offsetInCU: 0x237A, offset: 0x20D9F6, size: 0x8, addend: 0x0, symName: _ggml_op_desc, symObjAddr: 0x1260, symBinAddr: 0x95A90, symSize: 0x30 }
  - { offsetInCU: 0x2436, offset: 0x20DAB2, size: 0x8, addend: 0x0, symName: _ggml_get_unary_op, symObjAddr: 0x1290, symBinAddr: 0x95AC0, symSize: 0x30 }
  - { offsetInCU: 0x247E, offset: 0x20DAFA, size: 0x8, addend: 0x0, symName: _ggml_element_size, symObjAddr: 0x12C0, symBinAddr: 0x95AF0, symSize: 0x20 }
  - { offsetInCU: 0x2492, offset: 0x20DB0E, size: 0x8, addend: 0x0, symName: _ggml_element_size, symObjAddr: 0x12C0, symBinAddr: 0x95AF0, symSize: 0x20 }
  - { offsetInCU: 0x24C5, offset: 0x20DB41, size: 0x8, addend: 0x0, symName: _ggml_is_scalar, symObjAddr: 0x12E0, symBinAddr: 0x95B10, symSize: 0x30 }
  - { offsetInCU: 0x24E2, offset: 0x20DB5E, size: 0x8, addend: 0x0, symName: _ggml_is_vector, symObjAddr: 0x1310, symBinAddr: 0x95B40, symSize: 0x20 }
  - { offsetInCU: 0x24FF, offset: 0x20DB7B, size: 0x8, addend: 0x0, symName: _ggml_is_matrix, symObjAddr: 0x1330, symBinAddr: 0x95B60, symSize: 0x20 }
  - { offsetInCU: 0x251C, offset: 0x20DB98, size: 0x8, addend: 0x0, symName: _ggml_is_3d, symObjAddr: 0x1350, symBinAddr: 0x95B80, symSize: 0x10 }
  - { offsetInCU: 0x2539, offset: 0x20DBB5, size: 0x8, addend: 0x0, symName: _ggml_n_dims, symObjAddr: 0x1360, symBinAddr: 0x95B90, symSize: 0x30 }
  - { offsetInCU: 0x2584, offset: 0x20DC00, size: 0x8, addend: 0x0, symName: _ggml_ftype_to_ggml_type, symObjAddr: 0x1390, symBinAddr: 0x95BC0, symSize: 0x50 }
  - { offsetInCU: 0x25D6, offset: 0x20DC52, size: 0x8, addend: 0x0, symName: _ggml_tensor_overhead, symObjAddr: 0x13E0, symBinAddr: 0x95C10, symSize: 0x10 }
  - { offsetInCU: 0x25F1, offset: 0x20DC6D, size: 0x8, addend: 0x0, symName: _ggml_is_transposed, symObjAddr: 0x13F0, symBinAddr: 0x95C20, symSize: 0x20 }
  - { offsetInCU: 0x2670, offset: 0x20DCEC, size: 0x8, addend: 0x0, symName: _ggml_is_contiguous, symObjAddr: 0x1410, symBinAddr: 0x95C40, symSize: 0xB0 }
  - { offsetInCU: 0x2711, offset: 0x20DD8D, size: 0x8, addend: 0x0, symName: _ggml_is_contiguous_0, symObjAddr: 0x14C0, symBinAddr: 0x95CF0, symSize: 0xB0 }
  - { offsetInCU: 0x2793, offset: 0x20DE0F, size: 0x8, addend: 0x0, symName: _ggml_is_contiguous_1, symObjAddr: 0x1570, symBinAddr: 0x95DA0, symSize: 0xA0 }
  - { offsetInCU: 0x2815, offset: 0x20DE91, size: 0x8, addend: 0x0, symName: _ggml_is_contiguous_2, symObjAddr: 0x1610, symBinAddr: 0x95E40, symSize: 0xA0 }
  - { offsetInCU: 0x28C1, offset: 0x20DF3D, size: 0x8, addend: 0x0, symName: _ggml_is_contiguously_allocated, symObjAddr: 0x16B0, symBinAddr: 0x95EE0, symSize: 0x100 }
  - { offsetInCU: 0x29BA, offset: 0x20E036, size: 0x8, addend: 0x0, symName: _ggml_is_permuted, symObjAddr: 0x17B0, symBinAddr: 0x95FE0, symSize: 0x30 }
  - { offsetInCU: 0x29E5, offset: 0x20E061, size: 0x8, addend: 0x0, symName: _ggml_is_contiguous_channels, symObjAddr: 0x17E0, symBinAddr: 0x96010, symSize: 0x40 }
  - { offsetInCU: 0x2A18, offset: 0x20E094, size: 0x8, addend: 0x0, symName: _ggml_is_empty, symObjAddr: 0x1820, symBinAddr: 0x96050, symSize: 0x30 }
  - { offsetInCU: 0x2A4E, offset: 0x20E0CA, size: 0x8, addend: 0x0, symName: _ggml_are_same_shape, symObjAddr: 0x1850, symBinAddr: 0x96080, symSize: 0x40 }
  - { offsetInCU: 0x2A73, offset: 0x20E0EF, size: 0x8, addend: 0x0, symName: _ggml_are_same_stride, symObjAddr: 0x1890, symBinAddr: 0x960C0, symSize: 0x40 }
  - { offsetInCU: 0x2AD9, offset: 0x20E155, size: 0x8, addend: 0x0, symName: _ggml_can_repeat, symObjAddr: 0x18D0, symBinAddr: 0x96100, symSize: 0xE0 }
  - { offsetInCU: 0x2CAB, offset: 0x20E327, size: 0x8, addend: 0x0, symName: _ggml_reset, symObjAddr: 0x1C60, symBinAddr: 0x96490, symSize: 0x20 }
  - { offsetInCU: 0x2CF7, offset: 0x20E373, size: 0x8, addend: 0x0, symName: _ggml_free, symObjAddr: 0x1C80, symBinAddr: 0x964B0, symSize: 0x30 }
  - { offsetInCU: 0x2D3F, offset: 0x20E3BB, size: 0x8, addend: 0x0, symName: _ggml_used_mem, symObjAddr: 0x1CB0, symBinAddr: 0x964E0, symSize: 0x20 }
  - { offsetInCU: 0x2D6A, offset: 0x20E3E6, size: 0x8, addend: 0x0, symName: _ggml_get_no_alloc, symObjAddr: 0x1CD0, symBinAddr: 0x96500, symSize: 0x10 }
  - { offsetInCU: 0x2D95, offset: 0x20E411, size: 0x8, addend: 0x0, symName: _ggml_set_no_alloc, symObjAddr: 0x1CE0, symBinAddr: 0x96510, symSize: 0x10 }
  - { offsetInCU: 0x2DCB, offset: 0x20E447, size: 0x8, addend: 0x0, symName: _ggml_get_mem_buffer, symObjAddr: 0x1CF0, symBinAddr: 0x96520, symSize: 0x10 }
  - { offsetInCU: 0x2DF6, offset: 0x20E472, size: 0x8, addend: 0x0, symName: _ggml_get_mem_size, symObjAddr: 0x1D00, symBinAddr: 0x96530, symSize: 0x10 }
  - { offsetInCU: 0x2F19, offset: 0x20E595, size: 0x8, addend: 0x0, symName: _ggml_get_max_tensor_size, symObjAddr: 0x1D10, symBinAddr: 0x96540, symSize: 0x130 }
  - { offsetInCU: 0x3064, offset: 0x20E6E0, size: 0x8, addend: 0x0, symName: _ggml_get_first_tensor, symObjAddr: 0x1E40, symBinAddr: 0x96670, symSize: 0x40 }
  - { offsetInCU: 0x3095, offset: 0x20E711, size: 0x8, addend: 0x0, symName: _ggml_get_next_tensor, symObjAddr: 0x1E80, symBinAddr: 0x966B0, symSize: 0x40 }
  - { offsetInCU: 0x30CE, offset: 0x20E74A, size: 0x8, addend: 0x0, symName: _ggml_new_tensor, symObjAddr: 0x1EC0, symBinAddr: 0x966F0, symSize: 0x10 }
  - { offsetInCU: 0x313E, offset: 0x20E7BA, size: 0x8, addend: 0x0, symName: _ggml_new_tensor_impl, symObjAddr: 0x1ED0, symBinAddr: 0x96700, symSize: 0x680 }
  - { offsetInCU: 0x354D, offset: 0x20EBC9, size: 0x8, addend: 0x0, symName: _ggml_new_tensor_1d, symObjAddr: 0x2550, symBinAddr: 0x96D80, symSize: 0x30 }
  - { offsetInCU: 0x35F0, offset: 0x20EC6C, size: 0x8, addend: 0x0, symName: _ggml_new_tensor_2d, symObjAddr: 0x2580, symBinAddr: 0x96DB0, symSize: 0x50 }
  - { offsetInCU: 0x36AA, offset: 0x20ED26, size: 0x8, addend: 0x0, symName: _ggml_new_tensor_3d, symObjAddr: 0x25D0, symBinAddr: 0x96E00, symSize: 0x60 }
  - { offsetInCU: 0x376E, offset: 0x20EDEA, size: 0x8, addend: 0x0, symName: _ggml_new_tensor_4d, symObjAddr: 0x2630, symBinAddr: 0x96E60, symSize: 0x60 }
  - { offsetInCU: 0x383C, offset: 0x20EEB8, size: 0x8, addend: 0x0, symName: _ggml_new_buffer, symObjAddr: 0x2690, symBinAddr: 0x96EC0, symSize: 0xC0 }
  - { offsetInCU: 0x3927, offset: 0x20EFA3, size: 0x8, addend: 0x0, symName: _ggml_dup_tensor, symObjAddr: 0x2750, symBinAddr: 0x96F80, symSize: 0x20 }
  - { offsetInCU: 0x39AD, offset: 0x20F029, size: 0x8, addend: 0x0, symName: _ggml_unravel_index, symObjAddr: 0x2770, symBinAddr: 0x96FA0, symSize: 0xC0 }
  - { offsetInCU: 0x3A94, offset: 0x20F110, size: 0x8, addend: 0x0, symName: _ggml_get_data, symObjAddr: 0x2830, symBinAddr: 0x97060, symSize: 0x10 }
  - { offsetInCU: 0x3ABF, offset: 0x20F13B, size: 0x8, addend: 0x0, symName: _ggml_get_data_f32, symObjAddr: 0x2840, symBinAddr: 0x97070, symSize: 0x10 }
  - { offsetInCU: 0x3AEA, offset: 0x20F166, size: 0x8, addend: 0x0, symName: _ggml_get_name, symObjAddr: 0x2850, symBinAddr: 0x97080, symSize: 0x10 }
  - { offsetInCU: 0x3B07, offset: 0x20F183, size: 0x8, addend: 0x0, symName: _ggml_set_name, symObjAddr: 0x2860, symBinAddr: 0x97090, symSize: 0x70 }
  - { offsetInCU: 0x3B54, offset: 0x20F1D0, size: 0x8, addend: 0x0, symName: _ggml_format_name, symObjAddr: 0x28D0, symBinAddr: 0x97100, symSize: 0xD0 }
  - { offsetInCU: 0x3BA3, offset: 0x20F21F, size: 0x8, addend: 0x0, symName: _ggml_view_tensor, symObjAddr: 0x29A0, symBinAddr: 0x971D0, symSize: 0x70 }
  - { offsetInCU: 0x3C37, offset: 0x20F2B3, size: 0x8, addend: 0x0, symName: _ggml_get_tensor, symObjAddr: 0x2A10, symBinAddr: 0x97240, symSize: 0x60 }
  - { offsetInCU: 0x3D23, offset: 0x20F39F, size: 0x8, addend: 0x0, symName: _ggml_dup, symObjAddr: 0x2A70, symBinAddr: 0x972A0, symSize: 0x40 }
  - { offsetInCU: 0x3E72, offset: 0x20F4EE, size: 0x8, addend: 0x0, symName: _ggml_dup_inplace, symObjAddr: 0x2AB0, symBinAddr: 0x972E0, symSize: 0x80 }
  - { offsetInCU: 0x3F82, offset: 0x20F5FE, size: 0x8, addend: 0x0, symName: _ggml_add, symObjAddr: 0x2B30, symBinAddr: 0x97360, symSize: 0x10 }
  - { offsetInCU: 0x3FF8, offset: 0x20F674, size: 0x8, addend: 0x0, symName: _ggml_add_impl, symObjAddr: 0x2B40, symBinAddr: 0x97370, symSize: 0x1D0 }
  - { offsetInCU: 0x4220, offset: 0x20F89C, size: 0x8, addend: 0x0, symName: _ggml_add_inplace, symObjAddr: 0x2D10, symBinAddr: 0x97540, symSize: 0x10 }
  - { offsetInCU: 0x432B, offset: 0x20F9A7, size: 0x8, addend: 0x0, symName: _ggml_add_cast, symObjAddr: 0x2D20, symBinAddr: 0x97550, symSize: 0x170 }
  - { offsetInCU: 0x4531, offset: 0x20FBAD, size: 0x8, addend: 0x0, symName: _ggml_add1, symObjAddr: 0x2E90, symBinAddr: 0x976C0, symSize: 0x10 }
  - { offsetInCU: 0x45A7, offset: 0x20FC23, size: 0x8, addend: 0x0, symName: _ggml_add1_impl, symObjAddr: 0x2EA0, symBinAddr: 0x976D0, symSize: 0x150 }
  - { offsetInCU: 0x47BF, offset: 0x20FE3B, size: 0x8, addend: 0x0, symName: _ggml_add1_inplace, symObjAddr: 0x2FF0, symBinAddr: 0x97820, symSize: 0x10 }
  - { offsetInCU: 0x4835, offset: 0x20FEB1, size: 0x8, addend: 0x0, symName: _ggml_acc, symObjAddr: 0x3000, symBinAddr: 0x97830, symSize: 0x20 }
  - { offsetInCU: 0x4906, offset: 0x20FF82, size: 0x8, addend: 0x0, symName: _ggml_acc_impl, symObjAddr: 0x3020, symBinAddr: 0x97850, symSize: 0x2B0 }
  - { offsetInCU: 0x4C85, offset: 0x210301, size: 0x8, addend: 0x0, symName: _ggml_acc_inplace, symObjAddr: 0x32D0, symBinAddr: 0x97B00, symSize: 0x20 }
  - { offsetInCU: 0x4D56, offset: 0x2103D2, size: 0x8, addend: 0x0, symName: _ggml_sub, symObjAddr: 0x32F0, symBinAddr: 0x97B20, symSize: 0x10 }
  - { offsetInCU: 0x4DCC, offset: 0x210448, size: 0x8, addend: 0x0, symName: _ggml_sub_impl, symObjAddr: 0x3300, symBinAddr: 0x97B30, symSize: 0x1D0 }
  - { offsetInCU: 0x4FCB, offset: 0x210647, size: 0x8, addend: 0x0, symName: _ggml_sub_inplace, symObjAddr: 0x34D0, symBinAddr: 0x97D00, symSize: 0x10 }
  - { offsetInCU: 0x5041, offset: 0x2106BD, size: 0x8, addend: 0x0, symName: _ggml_mul, symObjAddr: 0x34E0, symBinAddr: 0x97D10, symSize: 0x10 }
  - { offsetInCU: 0x509B, offset: 0x210717, size: 0x8, addend: 0x0, symName: _ggml_mul_impl, symObjAddr: 0x34F0, symBinAddr: 0x97D20, symSize: 0x1D0 }
  - { offsetInCU: 0x529A, offset: 0x210916, size: 0x8, addend: 0x0, symName: _ggml_mul_inplace, symObjAddr: 0x36C0, symBinAddr: 0x97EF0, symSize: 0x10 }
  - { offsetInCU: 0x5310, offset: 0x21098C, size: 0x8, addend: 0x0, symName: _ggml_div, symObjAddr: 0x36D0, symBinAddr: 0x97F00, symSize: 0x10 }
  - { offsetInCU: 0x536A, offset: 0x2109E6, size: 0x8, addend: 0x0, symName: _ggml_div_impl, symObjAddr: 0x36E0, symBinAddr: 0x97F10, symSize: 0x1D0 }
  - { offsetInCU: 0x5569, offset: 0x210BE5, size: 0x8, addend: 0x0, symName: _ggml_div_inplace, symObjAddr: 0x38B0, symBinAddr: 0x980E0, symSize: 0x10 }
  - { offsetInCU: 0x5622, offset: 0x210C9E, size: 0x8, addend: 0x0, symName: _ggml_sqr, symObjAddr: 0x38C0, symBinAddr: 0x980F0, symSize: 0x40 }
  - { offsetInCU: 0x572B, offset: 0x210DA7, size: 0x8, addend: 0x0, symName: _ggml_sqr_inplace, symObjAddr: 0x3900, symBinAddr: 0x98130, symSize: 0x80 }
  - { offsetInCU: 0x587E, offset: 0x210EFA, size: 0x8, addend: 0x0, symName: _ggml_sqrt, symObjAddr: 0x3980, symBinAddr: 0x981B0, symSize: 0x40 }
  - { offsetInCU: 0x5987, offset: 0x211003, size: 0x8, addend: 0x0, symName: _ggml_sqrt_inplace, symObjAddr: 0x39C0, symBinAddr: 0x981F0, symSize: 0x80 }
  - { offsetInCU: 0x5ADA, offset: 0x211156, size: 0x8, addend: 0x0, symName: _ggml_log, symObjAddr: 0x3A40, symBinAddr: 0x98270, symSize: 0x40 }
  - { offsetInCU: 0x5BE3, offset: 0x21125F, size: 0x8, addend: 0x0, symName: _ggml_log_inplace, symObjAddr: 0x3A80, symBinAddr: 0x982B0, symSize: 0x80 }
  - { offsetInCU: 0x5D36, offset: 0x2113B2, size: 0x8, addend: 0x0, symName: _ggml_sin, symObjAddr: 0x3B00, symBinAddr: 0x98330, symSize: 0x40 }
  - { offsetInCU: 0x5E2A, offset: 0x2114A6, size: 0x8, addend: 0x0, symName: _ggml_sin_inplace, symObjAddr: 0x3B40, symBinAddr: 0x98370, symSize: 0x80 }
  - { offsetInCU: 0x5F7D, offset: 0x2115F9, size: 0x8, addend: 0x0, symName: _ggml_cos, symObjAddr: 0x3BC0, symBinAddr: 0x983F0, symSize: 0x40 }
  - { offsetInCU: 0x6071, offset: 0x2116ED, size: 0x8, addend: 0x0, symName: _ggml_cos_inplace, symObjAddr: 0x3C00, symBinAddr: 0x98430, symSize: 0x80 }
  - { offsetInCU: 0x61B7, offset: 0x211833, size: 0x8, addend: 0x0, symName: _ggml_sum, symObjAddr: 0x3C80, symBinAddr: 0x984B0, symSize: 0x40 }
  - { offsetInCU: 0x629E, offset: 0x21191A, size: 0x8, addend: 0x0, symName: _ggml_sum_rows, symObjAddr: 0x3CC0, symBinAddr: 0x984F0, symSize: 0x80 }
  - { offsetInCU: 0x6385, offset: 0x211A01, size: 0x8, addend: 0x0, symName: _ggml_mean, symObjAddr: 0x3D40, symBinAddr: 0x98570, symSize: 0x80 }
  - { offsetInCU: 0x644A, offset: 0x211AC6, size: 0x8, addend: 0x0, symName: _ggml_argmax, symObjAddr: 0x3DC0, symBinAddr: 0x985F0, symSize: 0xA0 }
  - { offsetInCU: 0x65A3, offset: 0x211C1F, size: 0x8, addend: 0x0, symName: _ggml_count_equal, symObjAddr: 0x3E60, symBinAddr: 0x98690, symSize: 0xA0 }
  - { offsetInCU: 0x66D9, offset: 0x211D55, size: 0x8, addend: 0x0, symName: _ggml_repeat, symObjAddr: 0x3F00, symBinAddr: 0x98730, symSize: 0x150 }
  - { offsetInCU: 0x68B4, offset: 0x211F30, size: 0x8, addend: 0x0, symName: _ggml_repeat_4d, symObjAddr: 0x4050, symBinAddr: 0x98880, symSize: 0x180 }
  - { offsetInCU: 0x6A5D, offset: 0x2120D9, size: 0x8, addend: 0x0, symName: _ggml_repeat_back, symObjAddr: 0x41D0, symBinAddr: 0x98A00, symSize: 0x150 }
  - { offsetInCU: 0x6BEC, offset: 0x212268, size: 0x8, addend: 0x0, symName: _ggml_concat, symObjAddr: 0x4320, symBinAddr: 0x98B50, symSize: 0x190 }
  - { offsetInCU: 0x6DFA, offset: 0x212476, size: 0x8, addend: 0x0, symName: _ggml_abs, symObjAddr: 0x44B0, symBinAddr: 0x98CE0, symSize: 0xF0 }
  - { offsetInCU: 0x6FD5, offset: 0x212651, size: 0x8, addend: 0x0, symName: _ggml_unary, symObjAddr: 0x45A0, symBinAddr: 0x98DD0, symSize: 0xF0 }
  - { offsetInCU: 0x71AC, offset: 0x212828, size: 0x8, addend: 0x0, symName: _ggml_abs_inplace, symObjAddr: 0x4690, symBinAddr: 0x98EC0, symSize: 0x10 }
  - { offsetInCU: 0x720B, offset: 0x212887, size: 0x8, addend: 0x0, symName: _ggml_unary_inplace, symObjAddr: 0x46A0, symBinAddr: 0x98ED0, symSize: 0x140 }
  - { offsetInCU: 0x7405, offset: 0x212A81, size: 0x8, addend: 0x0, symName: _ggml_sgn, symObjAddr: 0x47E0, symBinAddr: 0x99010, symSize: 0xF0 }
  - { offsetInCU: 0x75D3, offset: 0x212C4F, size: 0x8, addend: 0x0, symName: _ggml_sgn_inplace, symObjAddr: 0x48D0, symBinAddr: 0x99100, symSize: 0x10 }
  - { offsetInCU: 0x7632, offset: 0x212CAE, size: 0x8, addend: 0x0, symName: _ggml_neg, symObjAddr: 0x48E0, symBinAddr: 0x99110, symSize: 0xF0 }
  - { offsetInCU: 0x7800, offset: 0x212E7C, size: 0x8, addend: 0x0, symName: _ggml_neg_inplace, symObjAddr: 0x49D0, symBinAddr: 0x99200, symSize: 0x10 }
  - { offsetInCU: 0x785F, offset: 0x212EDB, size: 0x8, addend: 0x0, symName: _ggml_step, symObjAddr: 0x49E0, symBinAddr: 0x99210, symSize: 0xF0 }
  - { offsetInCU: 0x7A2D, offset: 0x2130A9, size: 0x8, addend: 0x0, symName: _ggml_step_inplace, symObjAddr: 0x4AD0, symBinAddr: 0x99300, symSize: 0x10 }
  - { offsetInCU: 0x7A8C, offset: 0x213108, size: 0x8, addend: 0x0, symName: _ggml_tanh, symObjAddr: 0x4AE0, symBinAddr: 0x99310, symSize: 0xF0 }
  - { offsetInCU: 0x7C6F, offset: 0x2132EB, size: 0x8, addend: 0x0, symName: _ggml_tanh_inplace, symObjAddr: 0x4BD0, symBinAddr: 0x99400, symSize: 0x10 }
  - { offsetInCU: 0x7CCE, offset: 0x21334A, size: 0x8, addend: 0x0, symName: _ggml_elu, symObjAddr: 0x4BE0, symBinAddr: 0x99410, symSize: 0xF0 }
  - { offsetInCU: 0x7EB1, offset: 0x21352D, size: 0x8, addend: 0x0, symName: _ggml_elu_inplace, symObjAddr: 0x4CD0, symBinAddr: 0x99500, symSize: 0x10 }
  - { offsetInCU: 0x7F10, offset: 0x21358C, size: 0x8, addend: 0x0, symName: _ggml_relu, symObjAddr: 0x4CE0, symBinAddr: 0x99510, symSize: 0xF0 }
  - { offsetInCU: 0x80F3, offset: 0x21376F, size: 0x8, addend: 0x0, symName: _ggml_relu_inplace, symObjAddr: 0x4DD0, symBinAddr: 0x99600, symSize: 0x10 }
  - { offsetInCU: 0x8152, offset: 0x2137CE, size: 0x8, addend: 0x0, symName: _ggml_leaky_relu, symObjAddr: 0x4DE0, symBinAddr: 0x99610, symSize: 0xD0 }
  - { offsetInCU: 0x830E, offset: 0x21398A, size: 0x8, addend: 0x0, symName: _ggml_sigmoid, symObjAddr: 0x4EB0, symBinAddr: 0x996E0, symSize: 0xF0 }
  - { offsetInCU: 0x84F1, offset: 0x213B6D, size: 0x8, addend: 0x0, symName: _ggml_sigmoid_inplace, symObjAddr: 0x4FA0, symBinAddr: 0x997D0, symSize: 0x10 }
  - { offsetInCU: 0x8550, offset: 0x213BCC, size: 0x8, addend: 0x0, symName: _ggml_gelu, symObjAddr: 0x4FB0, symBinAddr: 0x997E0, symSize: 0xF0 }
  - { offsetInCU: 0x8733, offset: 0x213DAF, size: 0x8, addend: 0x0, symName: _ggml_gelu_inplace, symObjAddr: 0x50A0, symBinAddr: 0x998D0, symSize: 0x10 }
  - { offsetInCU: 0x8792, offset: 0x213E0E, size: 0x8, addend: 0x0, symName: _ggml_gelu_erf, symObjAddr: 0x50B0, symBinAddr: 0x998E0, symSize: 0xF0 }
  - { offsetInCU: 0x8975, offset: 0x213FF1, size: 0x8, addend: 0x0, symName: _ggml_gelu_erf_inplace, symObjAddr: 0x51A0, symBinAddr: 0x999D0, symSize: 0x10 }
  - { offsetInCU: 0x89D4, offset: 0x214050, size: 0x8, addend: 0x0, symName: _ggml_gelu_quick, symObjAddr: 0x51B0, symBinAddr: 0x999E0, symSize: 0xF0 }
  - { offsetInCU: 0x8BB7, offset: 0x214233, size: 0x8, addend: 0x0, symName: _ggml_gelu_quick_inplace, symObjAddr: 0x52A0, symBinAddr: 0x99AD0, symSize: 0x10 }
  - { offsetInCU: 0x8C16, offset: 0x214292, size: 0x8, addend: 0x0, symName: _ggml_silu, symObjAddr: 0x52B0, symBinAddr: 0x99AE0, symSize: 0xF0 }
  - { offsetInCU: 0x8DF9, offset: 0x214475, size: 0x8, addend: 0x0, symName: _ggml_silu_inplace, symObjAddr: 0x53A0, symBinAddr: 0x99BD0, symSize: 0x10 }
  - { offsetInCU: 0x8E58, offset: 0x2144D4, size: 0x8, addend: 0x0, symName: _ggml_silu_back, symObjAddr: 0x53B0, symBinAddr: 0x99BE0, symSize: 0x40 }
  - { offsetInCU: 0x8F24, offset: 0x2145A0, size: 0x8, addend: 0x0, symName: _ggml_hardswish, symObjAddr: 0x53F0, symBinAddr: 0x99C20, symSize: 0xF0 }
  - { offsetInCU: 0x9107, offset: 0x214783, size: 0x8, addend: 0x0, symName: _ggml_hardsigmoid, symObjAddr: 0x54E0, symBinAddr: 0x99D10, symSize: 0xF0 }
  - { offsetInCU: 0x92EA, offset: 0x214966, size: 0x8, addend: 0x0, symName: _ggml_exp, symObjAddr: 0x55D0, symBinAddr: 0x99E00, symSize: 0xF0 }
  - { offsetInCU: 0x94CD, offset: 0x214B49, size: 0x8, addend: 0x0, symName: _ggml_exp_inplace, symObjAddr: 0x56C0, symBinAddr: 0x99EF0, symSize: 0x10 }
  - { offsetInCU: 0x957C, offset: 0x214BF8, size: 0x8, addend: 0x0, symName: _ggml_norm, symObjAddr: 0x56D0, symBinAddr: 0x99F00, symSize: 0x70 }
  - { offsetInCU: 0x96D8, offset: 0x214D54, size: 0x8, addend: 0x0, symName: _ggml_norm_inplace, symObjAddr: 0x5740, symBinAddr: 0x99F70, symSize: 0x90 }
  - { offsetInCU: 0x9876, offset: 0x214EF2, size: 0x8, addend: 0x0, symName: _ggml_rms_norm, symObjAddr: 0x57D0, symBinAddr: 0x9A000, symSize: 0x70 }
  - { offsetInCU: 0x99D2, offset: 0x21504E, size: 0x8, addend: 0x0, symName: _ggml_rms_norm_inplace, symObjAddr: 0x5840, symBinAddr: 0x9A070, symSize: 0x90 }
  - { offsetInCU: 0x9B20, offset: 0x21519C, size: 0x8, addend: 0x0, symName: _ggml_rms_norm_back, symObjAddr: 0x58D0, symBinAddr: 0x9A100, symSize: 0x80 }
  - { offsetInCU: 0x9CBF, offset: 0x21533B, size: 0x8, addend: 0x0, symName: _ggml_group_norm, symObjAddr: 0x5950, symBinAddr: 0x9A180, symSize: 0x50 }
  - { offsetInCU: 0x9E60, offset: 0x2154DC, size: 0x8, addend: 0x0, symName: _ggml_group_norm_inplace, symObjAddr: 0x59A0, symBinAddr: 0x9A1D0, symSize: 0xA0 }
  - { offsetInCU: 0xA058, offset: 0x2156D4, size: 0x8, addend: 0x0, symName: _ggml_l2_norm, symObjAddr: 0x5A40, symBinAddr: 0x9A270, symSize: 0x50 }
  - { offsetInCU: 0xA1B8, offset: 0x215834, size: 0x8, addend: 0x0, symName: _ggml_l2_norm_inplace, symObjAddr: 0x5A90, symBinAddr: 0x9A2C0, symSize: 0x90 }
  - { offsetInCU: 0xA35C, offset: 0x2159D8, size: 0x8, addend: 0x0, symName: _ggml_mul_mat, symObjAddr: 0x5B20, symBinAddr: 0x9A350, symSize: 0x140 }
  - { offsetInCU: 0xA4A1, offset: 0x215B1D, size: 0x8, addend: 0x0, symName: _ggml_mul_mat_set_prec, symObjAddr: 0x5C60, symBinAddr: 0x9A490, symSize: 0x30 }
  - { offsetInCU: 0xA51D, offset: 0x215B99, size: 0x8, addend: 0x0, symName: _ggml_mul_mat_id, symObjAddr: 0x5C90, symBinAddr: 0x9A4C0, symSize: 0x230 }
  - { offsetInCU: 0xA531, offset: 0x215BAD, size: 0x8, addend: 0x0, symName: _ggml_mul_mat_id, symObjAddr: 0x5C90, symBinAddr: 0x9A4C0, symSize: 0x230 }
  - { offsetInCU: 0xA717, offset: 0x215D93, size: 0x8, addend: 0x0, symName: _ggml_out_prod, symObjAddr: 0x5EC0, symBinAddr: 0x9A6F0, symSize: 0x140 }
  - { offsetInCU: 0xA85C, offset: 0x215ED8, size: 0x8, addend: 0x0, symName: _ggml_scale, symObjAddr: 0x6000, symBinAddr: 0x9A830, symSize: 0x10 }
  - { offsetInCU: 0xA8B6, offset: 0x215F32, size: 0x8, addend: 0x0, symName: _ggml_scale_impl, symObjAddr: 0x6010, symBinAddr: 0x9A840, symSize: 0x130 }
  - { offsetInCU: 0xAAB8, offset: 0x216134, size: 0x8, addend: 0x0, symName: _ggml_scale_inplace, symObjAddr: 0x6140, symBinAddr: 0x9A970, symSize: 0x10 }
  - { offsetInCU: 0xAB2E, offset: 0x2161AA, size: 0x8, addend: 0x0, symName: _ggml_set, symObjAddr: 0x6150, symBinAddr: 0x9A980, symSize: 0x20 }
  - { offsetInCU: 0xABFF, offset: 0x21627B, size: 0x8, addend: 0x0, symName: _ggml_set_impl, symObjAddr: 0x6170, symBinAddr: 0x9A9A0, symSize: 0x1C0 }
  - { offsetInCU: 0xAE53, offset: 0x2164CF, size: 0x8, addend: 0x0, symName: _ggml_set_inplace, symObjAddr: 0x6330, symBinAddr: 0x9AB60, symSize: 0x20 }
  - { offsetInCU: 0xAF24, offset: 0x2165A0, size: 0x8, addend: 0x0, symName: _ggml_set_1d, symObjAddr: 0x6350, symBinAddr: 0x9AB80, symSize: 0x30 }
  - { offsetInCU: 0xAFAB, offset: 0x216627, size: 0x8, addend: 0x0, symName: _ggml_set_1d_inplace, symObjAddr: 0x6380, symBinAddr: 0x9ABB0, symSize: 0x30 }
  - { offsetInCU: 0xB032, offset: 0x2166AE, size: 0x8, addend: 0x0, symName: _ggml_set_2d, symObjAddr: 0x63B0, symBinAddr: 0x9ABE0, symSize: 0x20 }
  - { offsetInCU: 0xB0D2, offset: 0x21674E, size: 0x8, addend: 0x0, symName: _ggml_set_2d_inplace, symObjAddr: 0x63D0, symBinAddr: 0x9AC00, symSize: 0x20 }
  - { offsetInCU: 0xB1B5, offset: 0x216831, size: 0x8, addend: 0x0, symName: _ggml_cpy, symObjAddr: 0x63F0, symBinAddr: 0x9AC20, symSize: 0x120 }
  - { offsetInCU: 0xB347, offset: 0x2169C3, size: 0x8, addend: 0x0, symName: _ggml_cast, symObjAddr: 0x6510, symBinAddr: 0x9AD40, symSize: 0x60 }
  - { offsetInCU: 0xB461, offset: 0x216ADD, size: 0x8, addend: 0x0, symName: _ggml_cont, symObjAddr: 0x6570, symBinAddr: 0x9ADA0, symSize: 0x60 }
  - { offsetInCU: 0xB5D7, offset: 0x216C53, size: 0x8, addend: 0x0, symName: _ggml_cont_1d, symObjAddr: 0x65D0, symBinAddr: 0x9AE00, symSize: 0xE0 }
  - { offsetInCU: 0xB775, offset: 0x216DF1, size: 0x8, addend: 0x0, symName: _ggml_cont_4d, symObjAddr: 0x66B0, symBinAddr: 0x9AEE0, symSize: 0xE0 }
  - { offsetInCU: 0xB8DD, offset: 0x216F59, size: 0x8, addend: 0x0, symName: _ggml_cont_2d, symObjAddr: 0x6790, symBinAddr: 0x9AFC0, symSize: 0xE0 }
  - { offsetInCU: 0xBA8F, offset: 0x21710B, size: 0x8, addend: 0x0, symName: _ggml_cont_3d, symObjAddr: 0x6870, symBinAddr: 0x9B0A0, symSize: 0xE0 }
  - { offsetInCU: 0xBC55, offset: 0x2172D1, size: 0x8, addend: 0x0, symName: _ggml_reshape, symObjAddr: 0x6950, symBinAddr: 0x9B180, symSize: 0x170 }
  - { offsetInCU: 0xBE05, offset: 0x217481, size: 0x8, addend: 0x0, symName: _ggml_reshape_1d, symObjAddr: 0x6AC0, symBinAddr: 0x9B2F0, symSize: 0x190 }
  - { offsetInCU: 0xBFB7, offset: 0x217633, size: 0x8, addend: 0x0, symName: _ggml_reshape_2d, symObjAddr: 0x6C50, symBinAddr: 0x9B480, symSize: 0x1A0 }
  - { offsetInCU: 0xC17A, offset: 0x2177F6, size: 0x8, addend: 0x0, symName: _ggml_reshape_3d, symObjAddr: 0x6DF0, symBinAddr: 0x9B620, symSize: 0x1A0 }
  - { offsetInCU: 0xC34E, offset: 0x2179CA, size: 0x8, addend: 0x0, symName: _ggml_reshape_4d, symObjAddr: 0x6F90, symBinAddr: 0x9B7C0, symSize: 0x1B0 }
  - { offsetInCU: 0xC590, offset: 0x217C0C, size: 0x8, addend: 0x0, symName: _ggml_view_1d, symObjAddr: 0x7140, symBinAddr: 0x9B970, symSize: 0x90 }
  - { offsetInCU: 0xC6C0, offset: 0x217D3C, size: 0x8, addend: 0x0, symName: _ggml_view_2d, symObjAddr: 0x71D0, symBinAddr: 0x9BA00, symSize: 0xE0 }
  - { offsetInCU: 0xC6D3, offset: 0x217D4F, size: 0x8, addend: 0x0, symName: _ggml_view_2d, symObjAddr: 0x71D0, symBinAddr: 0x9BA00, symSize: 0xE0 }
  - { offsetInCU: 0xC84E, offset: 0x217ECA, size: 0x8, addend: 0x0, symName: _ggml_view_3d, symObjAddr: 0x72B0, symBinAddr: 0x9BAE0, symSize: 0xF0 }
  - { offsetInCU: 0xC9E1, offset: 0x21805D, size: 0x8, addend: 0x0, symName: _ggml_view_4d, symObjAddr: 0x73A0, symBinAddr: 0x9BBD0, symSize: 0xE0 }
  - { offsetInCU: 0xCB39, offset: 0x2181B5, size: 0x8, addend: 0x0, symName: _ggml_permute, symObjAddr: 0x7480, symBinAddr: 0x9BCB0, symSize: 0x340 }
  - { offsetInCU: 0xCDBD, offset: 0x218439, size: 0x8, addend: 0x0, symName: _ggml_transpose, symObjAddr: 0x77C0, symBinAddr: 0x9BFF0, symSize: 0xC0 }
  - { offsetInCU: 0xCEA2, offset: 0x21851E, size: 0x8, addend: 0x0, symName: _ggml_get_rows, symObjAddr: 0x7880, symBinAddr: 0x9C0B0, symSize: 0x120 }
  - { offsetInCU: 0xD080, offset: 0x2186FC, size: 0x8, addend: 0x0, symName: _ggml_get_rows_back, symObjAddr: 0x79A0, symBinAddr: 0x9C1D0, symSize: 0x110 }
  - { offsetInCU: 0xD21A, offset: 0x218896, size: 0x8, addend: 0x0, symName: _ggml_diag, symObjAddr: 0x7AB0, symBinAddr: 0x9C2E0, symSize: 0xA0 }
  - { offsetInCU: 0xD35B, offset: 0x2189D7, size: 0x8, addend: 0x0, symName: _ggml_diag_mask_inf, symObjAddr: 0x7B50, symBinAddr: 0x9C380, symSize: 0x60 }
  - { offsetInCU: 0xD49A, offset: 0x218B16, size: 0x8, addend: 0x0, symName: _ggml_diag_mask_inf_inplace, symObjAddr: 0x7BB0, symBinAddr: 0x9C3E0, symSize: 0x90 }
  - { offsetInCU: 0xD4AD, offset: 0x218B29, size: 0x8, addend: 0x0, symName: _ggml_diag_mask_inf_inplace, symObjAddr: 0x7BB0, symBinAddr: 0x9C3E0, symSize: 0x90 }
  - { offsetInCU: 0xD65A, offset: 0x218CD6, size: 0x8, addend: 0x0, symName: _ggml_diag_mask_zero, symObjAddr: 0x7C40, symBinAddr: 0x9C470, symSize: 0x60 }
  - { offsetInCU: 0xD799, offset: 0x218E15, size: 0x8, addend: 0x0, symName: _ggml_diag_mask_zero_inplace, symObjAddr: 0x7CA0, symBinAddr: 0x9C4D0, symSize: 0x90 }
  - { offsetInCU: 0xD7AC, offset: 0x218E28, size: 0x8, addend: 0x0, symName: _ggml_diag_mask_zero_inplace, symObjAddr: 0x7CA0, symBinAddr: 0x9C4D0, symSize: 0x90 }
  - { offsetInCU: 0xD8FC, offset: 0x218F78, size: 0x8, addend: 0x0, symName: _ggml_soft_max, symObjAddr: 0x7D30, symBinAddr: 0x9C560, symSize: 0x20 }
  - { offsetInCU: 0xD961, offset: 0x218FDD, size: 0x8, addend: 0x0, symName: _ggml_soft_max_impl, symObjAddr: 0x7D50, symBinAddr: 0x9C580, symSize: 0x390 }
  - { offsetInCU: 0xDD13, offset: 0x21938F, size: 0x8, addend: 0x0, symName: _ggml_soft_max_inplace, symObjAddr: 0x80E0, symBinAddr: 0x9C910, symSize: 0x20 }
  - { offsetInCU: 0xDD78, offset: 0x2193F4, size: 0x8, addend: 0x0, symName: _ggml_soft_max_ext, symObjAddr: 0x8100, symBinAddr: 0x9C930, symSize: 0x10 }
  - { offsetInCU: 0xDE86, offset: 0x219502, size: 0x8, addend: 0x0, symName: _ggml_soft_max_ext_back, symObjAddr: 0x8110, symBinAddr: 0x9C940, symSize: 0x60 }
  - { offsetInCU: 0xDFB2, offset: 0x21962E, size: 0x8, addend: 0x0, symName: _ggml_soft_max_ext_back_inplace, symObjAddr: 0x8170, symBinAddr: 0x9C9A0, symSize: 0xA0 }
  - { offsetInCU: 0xE10F, offset: 0x21978B, size: 0x8, addend: 0x0, symName: _ggml_rope, symObjAddr: 0x8210, symBinAddr: 0x9CA40, symSize: 0x40 }
  - { offsetInCU: 0xE1BD, offset: 0x219839, size: 0x8, addend: 0x0, symName: _ggml_rope_impl, symObjAddr: 0x8250, symBinAddr: 0x9CA80, symSize: 0x320 }
  - { offsetInCU: 0xE4BF, offset: 0x219B3B, size: 0x8, addend: 0x0, symName: _ggml_rope_multi, symObjAddr: 0x8570, symBinAddr: 0x9CDA0, symSize: 0x2A0 }
  - { offsetInCU: 0xE746, offset: 0x219DC2, size: 0x8, addend: 0x0, symName: _ggml_rope_inplace, symObjAddr: 0x8810, symBinAddr: 0x9D040, symSize: 0x40 }
  - { offsetInCU: 0xE75A, offset: 0x219DD6, size: 0x8, addend: 0x0, symName: _ggml_rope_inplace, symObjAddr: 0x8810, symBinAddr: 0x9D040, symSize: 0x40 }
  - { offsetInCU: 0xE808, offset: 0x219E84, size: 0x8, addend: 0x0, symName: _ggml_rope_ext, symObjAddr: 0x8850, symBinAddr: 0x9D080, symSize: 0x20 }
  - { offsetInCU: 0xE90D, offset: 0x219F89, size: 0x8, addend: 0x0, symName: _ggml_rope_ext_inplace, symObjAddr: 0x8870, symBinAddr: 0x9D0A0, symSize: 0x20 }
  - { offsetInCU: 0xEA74, offset: 0x21A0F0, size: 0x8, addend: 0x0, symName: _ggml_rope_custom, symObjAddr: 0x8890, symBinAddr: 0x9D0C0, symSize: 0x20 }
  - { offsetInCU: 0xEBC9, offset: 0x21A245, size: 0x8, addend: 0x0, symName: _ggml_rope_custom_inplace, symObjAddr: 0x88B0, symBinAddr: 0x9D0E0, symSize: 0x20 }
  - { offsetInCU: 0xED61, offset: 0x21A3DD, size: 0x8, addend: 0x0, symName: _ggml_rope_yarn_corr_dims, symObjAddr: 0x88D0, symBinAddr: 0x9D100, symSize: 0xE0 }
  - { offsetInCU: 0xEF23, offset: 0x21A59F, size: 0x8, addend: 0x0, symName: _ggml_rope_ext_back, symObjAddr: 0x89B0, symBinAddr: 0x9D1E0, symSize: 0x20 }
  - { offsetInCU: 0xF0CA, offset: 0x21A746, size: 0x8, addend: 0x0, symName: _ggml_rope_multi_back, symObjAddr: 0x89D0, symBinAddr: 0x9D200, symSize: 0x20 }
  - { offsetInCU: 0xF1E2, offset: 0x21A85E, size: 0x8, addend: 0x0, symName: _ggml_clamp, symObjAddr: 0x89F0, symBinAddr: 0x9D220, symSize: 0xD0 }
  - { offsetInCU: 0xF377, offset: 0x21A9F3, size: 0x8, addend: 0x0, symName: _ggml_im2col, symObjAddr: 0x8AC0, symBinAddr: 0x9D2F0, symSize: 0x2C0 }
  - { offsetInCU: 0xF60B, offset: 0x21AC87, size: 0x8, addend: 0x0, symName: _ggml_im2col_back, symObjAddr: 0x8D80, symBinAddr: 0x9D5B0, symSize: 0x100 }
  - { offsetInCU: 0xF749, offset: 0x21ADC5, size: 0x8, addend: 0x0, symName: _ggml_conv_1d, symObjAddr: 0x8E80, symBinAddr: 0x9D6B0, symSize: 0xA0 }
  - { offsetInCU: 0xF8C8, offset: 0x21AF44, size: 0x8, addend: 0x0, symName: _ggml_conv_1d_ph, symObjAddr: 0x8F20, symBinAddr: 0x9D750, symSize: 0xB0 }
  - { offsetInCU: 0xFA3A, offset: 0x21B0B6, size: 0x8, addend: 0x0, symName: _ggml_conv_1d_dw, symObjAddr: 0x8FD0, symBinAddr: 0x9D800, symSize: 0xC0 }
  - { offsetInCU: 0xFBF8, offset: 0x21B274, size: 0x8, addend: 0x0, symName: _ggml_conv_1d_dw_ph, symObjAddr: 0x9090, symBinAddr: 0x9D8C0, symSize: 0xD0 }
  - { offsetInCU: 0xFDDE, offset: 0x21B45A, size: 0x8, addend: 0x0, symName: _ggml_conv_transpose_1d, symObjAddr: 0x9160, symBinAddr: 0x9D990, symSize: 0x1D0 }
  - { offsetInCU: 0x1002C, offset: 0x21B6A8, size: 0x8, addend: 0x0, symName: _ggml_conv_2d, symObjAddr: 0x9330, symBinAddr: 0x9DB60, symSize: 0x110 }
  - { offsetInCU: 0x102CF, offset: 0x21B94B, size: 0x8, addend: 0x0, symName: _ggml_conv_2d_sk_p0, symObjAddr: 0x9440, symBinAddr: 0x9DC70, symSize: 0x30 }
  - { offsetInCU: 0x1034B, offset: 0x21B9C7, size: 0x8, addend: 0x0, symName: _ggml_conv_2d_s1_ph, symObjAddr: 0x9470, symBinAddr: 0x9DCA0, symSize: 0x50 }
  - { offsetInCU: 0x103CD, offset: 0x21BA49, size: 0x8, addend: 0x0, symName: _ggml_conv_2d_dw, symObjAddr: 0x94C0, symBinAddr: 0x9DCF0, symSize: 0x130 }
  - { offsetInCU: 0x105C9, offset: 0x21BC45, size: 0x8, addend: 0x0, symName: _ggml_conv_2d_dw_direct, symObjAddr: 0x95F0, symBinAddr: 0x9DE20, symSize: 0x260 }
  - { offsetInCU: 0x108AA, offset: 0x21BF26, size: 0x8, addend: 0x0, symName: _ggml_conv_transpose_2d_p0, symObjAddr: 0x9850, symBinAddr: 0x9E080, symSize: 0xE0 }
  - { offsetInCU: 0x10A70, offset: 0x21C0EC, size: 0x8, addend: 0x0, symName: _ggml_pool_1d, symObjAddr: 0x9930, symBinAddr: 0x9E160, symSize: 0x110 }
  - { offsetInCU: 0x10C08, offset: 0x21C284, size: 0x8, addend: 0x0, symName: _ggml_pool_2d, symObjAddr: 0x9A40, symBinAddr: 0x9E270, symSize: 0x180 }
  - { offsetInCU: 0x10DCA, offset: 0x21C446, size: 0x8, addend: 0x0, symName: _ggml_pool_2d_back, symObjAddr: 0x9BC0, symBinAddr: 0x9E3F0, symSize: 0x100 }
  - { offsetInCU: 0x10EFC, offset: 0x21C578, size: 0x8, addend: 0x0, symName: _ggml_upscale, symObjAddr: 0x9CC0, symBinAddr: 0x9E4F0, symSize: 0x30 }
  - { offsetInCU: 0x10F7B, offset: 0x21C5F7, size: 0x8, addend: 0x0, symName: _ggml_upscale_impl, symObjAddr: 0x9CF0, symBinAddr: 0x9E520, symSize: 0x140 }
  - { offsetInCU: 0x1115E, offset: 0x21C7DA, size: 0x8, addend: 0x0, symName: _ggml_upscale_ext, symObjAddr: 0x9E30, symBinAddr: 0x9E660, symSize: 0x10 }
  - { offsetInCU: 0x11223, offset: 0x21C89F, size: 0x8, addend: 0x0, symName: _ggml_pad, symObjAddr: 0x9E40, symBinAddr: 0x9E670, symSize: 0x90 }
  - { offsetInCU: 0x11374, offset: 0x21C9F0, size: 0x8, addend: 0x0, symName: _ggml_pad_reflect_1d, symObjAddr: 0x9ED0, symBinAddr: 0x9E700, symSize: 0x260 }
  - { offsetInCU: 0x11615, offset: 0x21CC91, size: 0x8, addend: 0x0, symName: _ggml_roll, symObjAddr: 0xA130, symBinAddr: 0x9E960, symSize: 0x170 }
  - { offsetInCU: 0x11877, offset: 0x21CEF3, size: 0x8, addend: 0x0, symName: _ggml_arange, symObjAddr: 0xA2A0, symBinAddr: 0x9EAD0, symSize: 0xB0 }
  - { offsetInCU: 0x11A41, offset: 0x21D0BD, size: 0x8, addend: 0x0, symName: _ggml_timestep_embedding, symObjAddr: 0xA350, symBinAddr: 0x9EB80, symSize: 0x90 }
  - { offsetInCU: 0x11BCD, offset: 0x21D249, size: 0x8, addend: 0x0, symName: _ggml_argsort, symObjAddr: 0xA3E0, symBinAddr: 0x9EC10, symSize: 0x70 }
  - { offsetInCU: 0x11D99, offset: 0x21D415, size: 0x8, addend: 0x0, symName: _ggml_top_k, symObjAddr: 0xA450, symBinAddr: 0x9EC80, symSize: 0x190 }
  - { offsetInCU: 0x11FF1, offset: 0x21D66D, size: 0x8, addend: 0x0, symName: _ggml_flash_attn_ext, symObjAddr: 0xA5E0, symBinAddr: 0x9EE10, symSize: 0x300 }
  - { offsetInCU: 0x122A1, offset: 0x21D91D, size: 0x8, addend: 0x0, symName: _ggml_flash_attn_ext_set_prec, symObjAddr: 0xA8E0, symBinAddr: 0x9F110, symSize: 0x30 }
  - { offsetInCU: 0x122B5, offset: 0x21D931, size: 0x8, addend: 0x0, symName: _ggml_flash_attn_ext_set_prec, symObjAddr: 0xA8E0, symBinAddr: 0x9F110, symSize: 0x30 }
  - { offsetInCU: 0x12331, offset: 0x21D9AD, size: 0x8, addend: 0x0, symName: _ggml_flash_attn_ext_get_prec, symObjAddr: 0xA910, symBinAddr: 0x9F140, symSize: 0x30 }
  - { offsetInCU: 0x12345, offset: 0x21D9C1, size: 0x8, addend: 0x0, symName: _ggml_flash_attn_ext_get_prec, symObjAddr: 0xA910, symBinAddr: 0x9F140, symSize: 0x30 }
  - { offsetInCU: 0x123AC, offset: 0x21DA28, size: 0x8, addend: 0x0, symName: _ggml_flash_attn_back, symObjAddr: 0xA940, symBinAddr: 0x9F170, symSize: 0x20 }
  - { offsetInCU: 0x123C0, offset: 0x21DA3C, size: 0x8, addend: 0x0, symName: _ggml_flash_attn_back, symObjAddr: 0xA940, symBinAddr: 0x9F170, symSize: 0x20 }
  - { offsetInCU: 0x124EA, offset: 0x21DB66, size: 0x8, addend: 0x0, symName: _ggml_ssm_conv, symObjAddr: 0xA960, symBinAddr: 0x9F190, symSize: 0x140 }
  - { offsetInCU: 0x126D4, offset: 0x21DD50, size: 0x8, addend: 0x0, symName: _ggml_ssm_scan, symObjAddr: 0xAAA0, symBinAddr: 0x9F2D0, symSize: 0x6E0 }
  - { offsetInCU: 0x12D49, offset: 0x21E3C5, size: 0x8, addend: 0x0, symName: _ggml_win_part, symObjAddr: 0xB180, symBinAddr: 0x9F9B0, symSize: 0x200 }
  - { offsetInCU: 0x12EF8, offset: 0x21E574, size: 0x8, addend: 0x0, symName: _ggml_win_unpart, symObjAddr: 0xB380, symBinAddr: 0x9FBB0, symSize: 0xD0 }
  - { offsetInCU: 0x13050, offset: 0x21E6CC, size: 0x8, addend: 0x0, symName: _ggml_get_rel_pos, symObjAddr: 0xB450, symBinAddr: 0x9FC80, symSize: 0xD0 }
  - { offsetInCU: 0x13164, offset: 0x21E7E0, size: 0x8, addend: 0x0, symName: _ggml_add_rel_pos, symObjAddr: 0xB520, symBinAddr: 0x9FD50, symSize: 0x10 }
  - { offsetInCU: 0x131F1, offset: 0x21E86D, size: 0x8, addend: 0x0, symName: _ggml_add_rel_pos_impl, symObjAddr: 0xB530, symBinAddr: 0x9FD60, symSize: 0x450 }
  - { offsetInCU: 0x1369F, offset: 0x21ED1B, size: 0x8, addend: 0x0, symName: _ggml_add_rel_pos_inplace, symObjAddr: 0xB980, symBinAddr: 0xA01B0, symSize: 0x10 }
  - { offsetInCU: 0x1372C, offset: 0x21EDA8, size: 0x8, addend: 0x0, symName: _ggml_rwkv_wkv6, symObjAddr: 0xB990, symBinAddr: 0xA01C0, symSize: 0x6E0 }
  - { offsetInCU: 0x13D56, offset: 0x21F3D2, size: 0x8, addend: 0x0, symName: _ggml_gated_linear_attn, symObjAddr: 0xC070, symBinAddr: 0xA08A0, symSize: 0x620 }
  - { offsetInCU: 0x14318, offset: 0x21F994, size: 0x8, addend: 0x0, symName: _ggml_rwkv_wkv7, symObjAddr: 0xC690, symBinAddr: 0xA0EC0, symSize: 0x830 }
  - { offsetInCU: 0x14B11, offset: 0x22018D, size: 0x8, addend: 0x0, symName: _ggml_map_custom1, symObjAddr: 0xCEC0, symBinAddr: 0xA16F0, symSize: 0xD0 }
  - { offsetInCU: 0x14C96, offset: 0x220312, size: 0x8, addend: 0x0, symName: _ggml_map_custom1_inplace, symObjAddr: 0xCF90, symBinAddr: 0xA17C0, symSize: 0xF0 }
  - { offsetInCU: 0x14EFC, offset: 0x220578, size: 0x8, addend: 0x0, symName: _ggml_map_custom2, symObjAddr: 0xD080, symBinAddr: 0xA18B0, symSize: 0xE0 }
  - { offsetInCU: 0x15092, offset: 0x22070E, size: 0x8, addend: 0x0, symName: _ggml_map_custom2_inplace, symObjAddr: 0xD160, symBinAddr: 0xA1990, symSize: 0x100 }
  - { offsetInCU: 0x1531C, offset: 0x220998, size: 0x8, addend: 0x0, symName: _ggml_map_custom3, symObjAddr: 0xD260, symBinAddr: 0xA1A90, symSize: 0xF0 }
  - { offsetInCU: 0x154C2, offset: 0x220B3E, size: 0x8, addend: 0x0, symName: _ggml_map_custom3_inplace, symObjAddr: 0xD350, symBinAddr: 0xA1B80, symSize: 0x110 }
  - { offsetInCU: 0x15654, offset: 0x220CD0, size: 0x8, addend: 0x0, symName: _ggml_custom_4d, symObjAddr: 0xD460, symBinAddr: 0xA1C90, symSize: 0x1A0 }
  - { offsetInCU: 0x1587D, offset: 0x220EF9, size: 0x8, addend: 0x0, symName: _ggml_custom_inplace, symObjAddr: 0xD600, symBinAddr: 0xA1E30, symSize: 0x190 }
  - { offsetInCU: 0x15A23, offset: 0x22109F, size: 0x8, addend: 0x0, symName: _ggml_cross_entropy_loss, symObjAddr: 0xD790, symBinAddr: 0xA1FC0, symSize: 0xA0 }
  - { offsetInCU: 0x15B55, offset: 0x2211D1, size: 0x8, addend: 0x0, symName: _ggml_cross_entropy_loss_back, symObjAddr: 0xD830, symBinAddr: 0xA2060, symSize: 0xE0 }
  - { offsetInCU: 0x15CC1, offset: 0x22133D, size: 0x8, addend: 0x0, symName: _ggml_opt_step_adamw, symObjAddr: 0xD910, symBinAddr: 0xA2140, symSize: 0x240 }
  - { offsetInCU: 0x15FA1, offset: 0x22161D, size: 0x8, addend: 0x0, symName: _ggml_hash_set_new, symObjAddr: 0xDB50, symBinAddr: 0xA2380, symSize: 0x1A0 }
  - { offsetInCU: 0x1611A, offset: 0x221796, size: 0x8, addend: 0x0, symName: _ggml_hash_set_reset, symObjAddr: 0xDD50, symBinAddr: 0xA2580, symSize: 0x20 }
  - { offsetInCU: 0x16158, offset: 0x2217D4, size: 0x8, addend: 0x0, symName: _ggml_hash_set_free, symObjAddr: 0xDD70, symBinAddr: 0xA25A0, symSize: 0x30 }
  - { offsetInCU: 0x161CD, offset: 0x221849, size: 0x8, addend: 0x0, symName: _ggml_build_forward_expand, symObjAddr: 0xDDA0, symBinAddr: 0xA25D0, symSize: 0x60 }
  - { offsetInCU: 0x1626D, offset: 0x2218E9, size: 0x8, addend: 0x0, symName: _ggml_visit_parents, symObjAddr: 0x13490, symBinAddr: 0xA7CC0, symSize: 0x370 }
  - { offsetInCU: 0x170B0, offset: 0x22272C, size: 0x8, addend: 0x0, symName: _ggml_build_backward_expand, symObjAddr: 0xDE00, symBinAddr: 0xA2630, symSize: 0x29A0 }
  - { offsetInCU: 0x1A52E, offset: 0x225BAA, size: 0x8, addend: 0x0, symName: _ggml_add_or_set, symObjAddr: 0x13800, symBinAddr: 0xA8030, symSize: 0xF0 }
  - { offsetInCU: 0x1A66E, offset: 0x225CEA, size: 0x8, addend: 0x0, symName: _ggml_sub_or_set, symObjAddr: 0x138F0, symBinAddr: 0xA8120, symSize: 0x1E0 }
  - { offsetInCU: 0x1A981, offset: 0x225FFD, size: 0x8, addend: 0x0, symName: _ggml_add1_or_set, symObjAddr: 0x13AD0, symBinAddr: 0xA8300, symSize: 0xF3 }
  - { offsetInCU: 0x1AB6A, offset: 0x2261E6, size: 0x8, addend: 0x0, symName: _ggml_graph_overhead_custom, symObjAddr: 0x107A0, symBinAddr: 0xA4FD0, symSize: 0xA0 }
  - { offsetInCU: 0x1ACF1, offset: 0x22636D, size: 0x8, addend: 0x0, symName: _ggml_graph_overhead, symObjAddr: 0x10840, symBinAddr: 0xA5070, symSize: 0x70 }
  - { offsetInCU: 0x1AE04, offset: 0x226480, size: 0x8, addend: 0x0, symName: _ggml_new_graph_custom, symObjAddr: 0x108B0, symBinAddr: 0xA50E0, symSize: 0x250 }
  - { offsetInCU: 0x1B245, offset: 0x2268C1, size: 0x8, addend: 0x0, symName: _ggml_new_graph, symObjAddr: 0x10B00, symBinAddr: 0xA5330, symSize: 0x20 }
  - { offsetInCU: 0x1B295, offset: 0x226911, size: 0x8, addend: 0x0, symName: _ggml_graph_view, symObjAddr: 0x10B20, symBinAddr: 0xA5350, symSize: 0x40 }
  - { offsetInCU: 0x1B350, offset: 0x2269CC, size: 0x8, addend: 0x0, symName: _ggml_graph_cpy, symObjAddr: 0x10B60, symBinAddr: 0xA5390, symSize: 0x5A0 }
  - { offsetInCU: 0x1B72B, offset: 0x226DA7, size: 0x8, addend: 0x0, symName: _ggml_graph_dup, symObjAddr: 0x11100, symBinAddr: 0xA5930, symSize: 0x40 }
  - { offsetInCU: 0x1B7B8, offset: 0x226E34, size: 0x8, addend: 0x0, symName: _ggml_set_zero, symObjAddr: 0x11140, symBinAddr: 0xA5970, symSize: 0x1E0 }
  - { offsetInCU: 0x1B9B5, offset: 0x227031, size: 0x8, addend: 0x0, symName: _ggml_graph_reset, symObjAddr: 0x11320, symBinAddr: 0xA5B50, symSize: 0x240 }
  - { offsetInCU: 0x1BBD6, offset: 0x227252, size: 0x8, addend: 0x0, symName: _ggml_graph_get_grad_acc, symObjAddr: 0x11560, symBinAddr: 0xA5D90, symSize: 0xA0 }
  - { offsetInCU: 0x1BC83, offset: 0x2272FF, size: 0x8, addend: 0x0, symName: _ggml_graph_clear, symObjAddr: 0x11600, symBinAddr: 0xA5E30, symSize: 0x30 }
  - { offsetInCU: 0x1BCEC, offset: 0x227368, size: 0x8, addend: 0x0, symName: _ggml_graph_size, symObjAddr: 0x11630, symBinAddr: 0xA5E60, symSize: 0x10 }
  - { offsetInCU: 0x1BD17, offset: 0x227393, size: 0x8, addend: 0x0, symName: _ggml_graph_node, symObjAddr: 0x11640, symBinAddr: 0xA5E70, symSize: 0x70 }
  - { offsetInCU: 0x1BD83, offset: 0x2273FF, size: 0x8, addend: 0x0, symName: _ggml_graph_nodes, symObjAddr: 0x116B0, symBinAddr: 0xA5EE0, symSize: 0x10 }
  - { offsetInCU: 0x1BDAE, offset: 0x22742A, size: 0x8, addend: 0x0, symName: _ggml_graph_n_nodes, symObjAddr: 0x116C0, symBinAddr: 0xA5EF0, symSize: 0x10 }
  - { offsetInCU: 0x1BDD9, offset: 0x227455, size: 0x8, addend: 0x0, symName: _ggml_graph_add_node, symObjAddr: 0x116D0, symBinAddr: 0xA5F00, symSize: 0x40 }
  - { offsetInCU: 0x1BE2A, offset: 0x2274A6, size: 0x8, addend: 0x0, symName: _ggml_graph_get_tensor, symObjAddr: 0x11710, symBinAddr: 0xA5F40, symSize: 0xB0 }
  - { offsetInCU: 0x1BEE8, offset: 0x227564, size: 0x8, addend: 0x0, symName: _ggml_graph_get_grad, symObjAddr: 0x117C0, symBinAddr: 0xA5FF0, symSize: 0xA0 }
  - { offsetInCU: 0x1BFB1, offset: 0x22762D, size: 0x8, addend: 0x0, symName: _ggml_graph_print, symObjAddr: 0x11860, symBinAddr: 0xA6090, symSize: 0x210 }
  - { offsetInCU: 0x1C37B, offset: 0x2279F7, size: 0x8, addend: 0x0, symName: _ggml_graph_dump_dot, symObjAddr: 0x11A70, symBinAddr: 0xA62A0, symSize: 0xD10 }
  - { offsetInCU: 0x1CBB4, offset: 0x228230, size: 0x8, addend: 0x0, symName: _ggml_set_input, symObjAddr: 0x12780, symBinAddr: 0xA6FB0, symSize: 0x10 }
  - { offsetInCU: 0x1CBDB, offset: 0x228257, size: 0x8, addend: 0x0, symName: _ggml_set_output, symObjAddr: 0x12790, symBinAddr: 0xA6FC0, symSize: 0x10 }
  - { offsetInCU: 0x1CC02, offset: 0x22827E, size: 0x8, addend: 0x0, symName: _ggml_set_param, symObjAddr: 0x127A0, symBinAddr: 0xA6FD0, symSize: 0x40 }
  - { offsetInCU: 0x1CC42, offset: 0x2282BE, size: 0x8, addend: 0x0, symName: _ggml_set_loss, symObjAddr: 0x127E0, symBinAddr: 0xA7010, symSize: 0x70 }
  - { offsetInCU: 0x1CCA4, offset: 0x228320, size: 0x8, addend: 0x0, symName: _ggml_quantize_init, symObjAddr: 0x12850, symBinAddr: 0xA7080, symSize: 0x60 }
  - { offsetInCU: 0x1CCB8, offset: 0x228334, size: 0x8, addend: 0x0, symName: _ggml_quantize_init, symObjAddr: 0x12850, symBinAddr: 0xA7080, symSize: 0x60 }
  - { offsetInCU: 0x1CD43, offset: 0x2283BF, size: 0x8, addend: 0x0, symName: _ggml_quantize_free, symObjAddr: 0x128B0, symBinAddr: 0xA70E0, symSize: 0x40 }
  - { offsetInCU: 0x1CDEB, offset: 0x228467, size: 0x8, addend: 0x0, symName: _ggml_quantize_requires_imatrix, symObjAddr: 0x128F0, symBinAddr: 0xA7120, symSize: 0x20 }
  - { offsetInCU: 0x1CEBD, offset: 0x228539, size: 0x8, addend: 0x0, symName: _ggml_quantize_chunk, symObjAddr: 0x12910, symBinAddr: 0xA7140, symSize: 0xA60 }
  - { offsetInCU: 0x1D9AB, offset: 0x229027, size: 0x8, addend: 0x0, symName: _ggml_log_set, symObjAddr: 0x13370, symBinAddr: 0xA7BA0, symSize: 0x30 }
  - { offsetInCU: 0x1D9E1, offset: 0x22905D, size: 0x8, addend: 0x0, symName: _ggml_threadpool_params_init, symObjAddr: 0x133A0, symBinAddr: 0xA7BD0, symSize: 0x40 }
  - { offsetInCU: 0x1DAA7, offset: 0x229123, size: 0x8, addend: 0x0, symName: _ggml_threadpool_params_default, symObjAddr: 0x133E0, symBinAddr: 0xA7C10, symSize: 0x50 }
  - { offsetInCU: 0x1DB0E, offset: 0x22918A, size: 0x8, addend: 0x0, symName: _ggml_threadpool_params_match, symObjAddr: 0x13430, symBinAddr: 0xA7C60, symSize: 0x60 }
  - { offsetInCU: 0x59, offset: 0x2293AB, size: 0x8, addend: 0x0, symName: __ZL26previous_terminate_handler, symObjAddr: 0x6070, symBinAddr: 0x211DB0, symSize: 0x0 }
  - { offsetInCU: 0x2C1B, offset: 0x22BF6D, size: 0x8, addend: 0x0, symName: __ZL23ggml_uncaught_exceptionv, symObjAddr: 0x0, symBinAddr: 0xA8400, symSize: 0x1C }
  - { offsetInCU: 0x3F, offset: 0x22BFE9, size: 0x8, addend: 0x0, symName: __ZL14GGUF_TYPE_SIZE, symObjAddr: 0x23C4D0, symBinAddr: 0x211DB8, symSize: 0x0 }
  - { offsetInCU: 0x21A27, offset: 0x24D9D1, size: 0x8, addend: 0x0, symName: __ZNSt3__135__uninitialized_allocator_copy_implB8ue170006INS_9allocatorINS_12basic_stringIcNS_11char_traitsIcEENS1_IcEEEEEEPS6_S8_S8_EET2_RT_T0_T1_S9_, symObjAddr: 0x14950, symBinAddr: 0xBC5F0, symSize: 0x110 }
  - { offsetInCU: 0x231FB, offset: 0x24F1A5, size: 0x8, addend: 0x0, symName: __ZL14GGUF_TYPE_NAME, symObjAddr: 0x23C4E8, symBinAddr: 0x211DD0, symSize: 0x0 }
  - { offsetInCU: 0x27298, offset: 0x253242, size: 0x8, addend: 0x0, symName: __ZNSt3__13mapI9gguf_typemNS_4lessIS1_EENS_9allocatorINS_4pairIKS1_mEEEEED1B8ue170006Ev, symObjAddr: 0x0, symBinAddr: 0xA8480, symSize: 0x10 }
  - { offsetInCU: 0x27354, offset: 0x2532FE, size: 0x8, addend: 0x0, symName: __ZNSt3__16__treeINS_12__value_typeI9gguf_typemEENS_19__map_value_compareIS2_S3_NS_4lessIS2_EELb1EEENS_9allocatorIS3_EEE7destroyEPNS_11__tree_nodeIS3_PvEE, symObjAddr: 0xE250, symBinAddr: 0xB6430, symSize: 0x40 }
  - { offsetInCU: 0x27531, offset: 0x2534DB, size: 0x8, addend: 0x0, symName: __ZNSt3__13mapI9gguf_typePKcNS_4lessIS1_EENS_9allocatorINS_4pairIKS1_S3_EEEEED1B8ue170006Ev, symObjAddr: 0x10, symBinAddr: 0xA8490, symSize: 0x10 }
  - { offsetInCU: 0x275ED, offset: 0x253597, size: 0x8, addend: 0x0, symName: __ZNSt3__16__treeINS_12__value_typeI9gguf_typePKcEENS_19__map_value_compareIS2_S5_NS_4lessIS2_EELb1EEENS_9allocatorIS5_EEE7destroyEPNS_11__tree_nodeIS5_PvEE, symObjAddr: 0xE400, symBinAddr: 0xB65E0, symSize: 0x40 }
  - { offsetInCU: 0x27893, offset: 0x25383D, size: 0x8, addend: 0x0, symName: __Z14gguf_type_size9gguf_type, symObjAddr: 0x20, symBinAddr: 0xA84A0, symSize: 0x60 }
  - { offsetInCU: 0x27AD3, offset: 0x253A7D, size: 0x8, addend: 0x0, symName: _gguf_init_empty, symObjAddr: 0x80, symBinAddr: 0xA8500, symSize: 0x40 }
  - { offsetInCU: 0x28901, offset: 0x2548AB, size: 0x8, addend: 0x0, symName: __Z24gguf_init_from_file_implP7__sFILE16gguf_init_params, symObjAddr: 0xC0, symBinAddr: 0xA8540, symSize: 0x1720 }
  - { offsetInCU: 0x2A95B, offset: 0x256905, size: 0x8, addend: 0x0, symName: __ZNSt3__16vectorI7gguf_kvNS_9allocatorIS1_EEE22__base_destruct_at_endB8ue170006EPS1_, symObjAddr: 0xC5D0, symBinAddr: 0xB49D0, symSize: 0xB0 }
  - { offsetInCU: 0x2AF81, offset: 0x256F2B, size: 0x8, addend: 0x0, symName: __Z24gguf_read_emplace_helperIhEbRK11gguf_readerRNSt3__16vectorI7gguf_kvNS3_9allocatorIS5_EEEERKNS3_12basic_stringIcNS3_11char_traitsIcEENS6_IcEEEEbm, symObjAddr: 0x1840, symBinAddr: 0xA9CB0, symSize: 0x1F0 }
  - { offsetInCU: 0x2B834, offset: 0x2577DE, size: 0x8, addend: 0x0, symName: __Z24gguf_read_emplace_helperIxEbRK11gguf_readerRNSt3__16vectorI7gguf_kvNS3_9allocatorIS5_EEEERKNS3_12basic_stringIcNS3_11char_traitsIcEENS6_IcEEEEbm, symObjAddr: 0x2F80, symBinAddr: 0xAB3F0, symSize: 0x260 }
  - { offsetInCU: 0x2C15F, offset: 0x258109, size: 0x8, addend: 0x0, symName: __Z24gguf_read_emplace_helperItEbRK11gguf_readerRNSt3__16vectorI7gguf_kvNS3_9allocatorIS5_EEEERKNS3_12basic_stringIcNS3_11char_traitsIcEENS6_IcEEEEbm, symObjAddr: 0x1C20, symBinAddr: 0xAA090, symSize: 0x260 }
  - { offsetInCU: 0x2CA82, offset: 0x258A2C, size: 0x8, addend: 0x0, symName: __Z24gguf_read_emplace_helperIiEbRK11gguf_readerRNSt3__16vectorI7gguf_kvNS3_9allocatorIS5_EEEERKNS3_12basic_stringIcNS3_11char_traitsIcEENS6_IcEEEEbm, symObjAddr: 0x2340, symBinAddr: 0xAA7B0, symSize: 0x260 }
  - { offsetInCU: 0x2D3AD, offset: 0x259357, size: 0x8, addend: 0x0, symName: __Z24gguf_read_emplace_helperIdEbRK11gguf_readerRNSt3__16vectorI7gguf_kvNS3_9allocatorIS5_EEEERKNS3_12basic_stringIcNS3_11char_traitsIcEENS6_IcEEEEbm, symObjAddr: 0x31E0, symBinAddr: 0xAB650, symSize: 0x260 }
  - { offsetInCU: 0x2DCD8, offset: 0x259C82, size: 0x8, addend: 0x0, symName: __Z24gguf_read_emplace_helperIaEbRK11gguf_readerRNSt3__16vectorI7gguf_kvNS3_9allocatorIS5_EEEERKNS3_12basic_stringIcNS3_11char_traitsIcEENS6_IcEEEEbm, symObjAddr: 0x1A30, symBinAddr: 0xA9EA0, symSize: 0x1F0 }
  - { offsetInCU: 0x2E58B, offset: 0x25A535, size: 0x8, addend: 0x0, symName: __Z24gguf_read_emplace_helperIfEbRK11gguf_readerRNSt3__16vectorI7gguf_kvNS3_9allocatorIS5_EEEERKNS3_12basic_stringIcNS3_11char_traitsIcEENS6_IcEEEEbm, symObjAddr: 0x25A0, symBinAddr: 0xAAA10, symSize: 0x260 }
  - { offsetInCU: 0x2EEB6, offset: 0x25AE60, size: 0x8, addend: 0x0, symName: __Z24gguf_read_emplace_helperIbEbRK11gguf_readerRNSt3__16vectorI7gguf_kvNS3_9allocatorIS5_EEEERKNS3_12basic_stringIcNS3_11char_traitsIcEENS6_IcEEEEbm, symObjAddr: 0x2800, symBinAddr: 0xAAC70, symSize: 0x270 }
  - { offsetInCU: 0x2F795, offset: 0x25B73F, size: 0x8, addend: 0x0, symName: __Z24gguf_read_emplace_helperIsEbRK11gguf_readerRNSt3__16vectorI7gguf_kvNS3_9allocatorIS5_EEEERKNS3_12basic_stringIcNS3_11char_traitsIcEENS6_IcEEEEbm, symObjAddr: 0x1E80, symBinAddr: 0xAA2F0, symSize: 0x260 }
  - { offsetInCU: 0x300B8, offset: 0x25C062, size: 0x8, addend: 0x0, symName: __Z24gguf_read_emplace_helperIjEbRK11gguf_readerRNSt3__16vectorI7gguf_kvNS3_9allocatorIS5_EEEERKNS3_12basic_stringIcNS3_11char_traitsIcEENS6_IcEEEEbm, symObjAddr: 0x20E0, symBinAddr: 0xAA550, symSize: 0x260 }
  - { offsetInCU: 0x309E3, offset: 0x25C98D, size: 0x8, addend: 0x0, symName: __Z24gguf_read_emplace_helperIyEbRK11gguf_readerRNSt3__16vectorI7gguf_kvNS3_9allocatorIS5_EEEERKNS3_12basic_stringIcNS3_11char_traitsIcEENS6_IcEEEEbm, symObjAddr: 0x2D20, symBinAddr: 0xAB190, symSize: 0x260 }
  - { offsetInCU: 0x3130E, offset: 0x25D2B8, size: 0x8, addend: 0x0, symName: __Z24gguf_read_emplace_helperINSt3__112basic_stringIcNS0_11char_traitsIcEENS0_9allocatorIcEEEEEbRK11gguf_readerRNS0_6vectorI7gguf_kvNS4_ISB_EEEERKS6_bm, symObjAddr: 0x2A70, symBinAddr: 0xAAEE0, symSize: 0x2B0 }
  - { offsetInCU: 0x31FF0, offset: 0x25DF9A, size: 0x8, addend: 0x0, symName: __ZNSt3__16vectorI16gguf_tensor_infoNS_9allocatorIS1_EEE9push_backB8ue170006ERKS1_, symObjAddr: 0x3690, symBinAddr: 0xABB00, symSize: 0x170 }
  - { offsetInCU: 0x325D9, offset: 0x25E583, size: 0x8, addend: 0x0, symName: _gguf_get_val_u32, symObjAddr: 0x34F0, symBinAddr: 0xAB960, symSize: 0x1A0 }
  - { offsetInCU: 0x328D5, offset: 0x25E87F, size: 0x8, addend: 0x0, symName: _gguf_free, symObjAddr: 0x17E0, symBinAddr: 0xA9C60, symSize: 0x50 }
  - { offsetInCU: 0x3318B, offset: 0x25F135, size: 0x8, addend: 0x0, symName: __ZNK11gguf_reader4readIhEEbRNSt3__16vectorIT_NS1_9allocatorIS3_EEEEm, symObjAddr: 0xE440, symBinAddr: 0xB6620, symSize: 0x390 }
  - { offsetInCU: 0x33908, offset: 0x25F8B2, size: 0x8, addend: 0x0, symName: __ZN7gguf_kvC2IhEERKNSt3__112basic_stringIcNS1_11char_traitsIcEENS1_9allocatorIcEEEERKNS1_6vectorIT_NS5_ISB_EEEE, symObjAddr: 0xEA90, symBinAddr: 0xB6C60, symSize: 0x1A0 }
  - { offsetInCU: 0x342BD, offset: 0x260267, size: 0x8, addend: 0x0, symName: __ZN7gguf_kvC2IhEERKNSt3__112basic_stringIcNS1_11char_traitsIcEENS1_9allocatorIcEEEET_, symObjAddr: 0xF000, symBinAddr: 0xB71C0, symSize: 0x140 }
  - { offsetInCU: 0x34B48, offset: 0x260AF2, size: 0x8, addend: 0x0, symName: __ZNSt3__16vectorI7gguf_kvNS_9allocatorIS1_EEE24__emplace_back_slow_pathIJRKNS_12basic_stringIcNS_11char_traitsIcEENS2_IcEEEERhEEEvDpOT_, symObjAddr: 0xED50, symBinAddr: 0xB6F10, symSize: 0x2B0 }
  - { offsetInCU: 0x358CC, offset: 0x261876, size: 0x8, addend: 0x0, symName: __ZNSt3__16vectorI7gguf_kvNS_9allocatorIS1_EEE24__emplace_back_slow_pathIJRKNS_12basic_stringIcNS_11char_traitsIcEENS2_IcEEEERNS0_IhNS2_IhEEEEEEEvDpOT_, symObjAddr: 0xE7E0, symBinAddr: 0xB69B0, symSize: 0x2B0 }
  - { offsetInCU: 0x36A8F, offset: 0x262A39, size: 0x8, addend: 0x0, symName: __ZNK11gguf_reader4readIaEEbRNSt3__16vectorIT_NS1_9allocatorIS3_EEEEm, symObjAddr: 0xF140, symBinAddr: 0xB7300, symSize: 0x390 }
  - { offsetInCU: 0x3720C, offset: 0x2631B6, size: 0x8, addend: 0x0, symName: __ZN7gguf_kvC2IaEERKNSt3__112basic_stringIcNS1_11char_traitsIcEENS1_9allocatorIcEEEERKNS1_6vectorIT_NS5_ISB_EEEE, symObjAddr: 0xF780, symBinAddr: 0xB7940, symSize: 0x1A0 }
  - { offsetInCU: 0x37BC1, offset: 0x263B6B, size: 0x8, addend: 0x0, symName: __ZN7gguf_kvC2IaEERKNSt3__112basic_stringIcNS1_11char_traitsIcEENS1_9allocatorIcEEEET_, symObjAddr: 0xFBD0, symBinAddr: 0xB7D90, symSize: 0x150 }
  - { offsetInCU: 0x3845E, offset: 0x264408, size: 0x8, addend: 0x0, symName: __ZNSt3__16vectorI7gguf_kvNS_9allocatorIS1_EEE24__emplace_back_slow_pathIJRKNS_12basic_stringIcNS_11char_traitsIcEENS2_IcEEEERaEEEvDpOT_, symObjAddr: 0xF920, symBinAddr: 0xB7AE0, symSize: 0x2B0 }
  - { offsetInCU: 0x391E2, offset: 0x26518C, size: 0x8, addend: 0x0, symName: __ZNSt3__16vectorI7gguf_kvNS_9allocatorIS1_EEE24__emplace_back_slow_pathIJRKNS_12basic_stringIcNS_11char_traitsIcEENS2_IcEEEERNS0_IaNS2_IaEEEEEEEvDpOT_, symObjAddr: 0xF4D0, symBinAddr: 0xB7690, symSize: 0x2B0 }
  - { offsetInCU: 0x3A438, offset: 0x2663E2, size: 0x8, addend: 0x0, symName: __ZNSt3__16vectorItNS_9allocatorItEEE8__appendEm, symObjAddr: 0xFD20, symBinAddr: 0xB7EE0, symSize: 0x220 }
  - { offsetInCU: 0x3AA2A, offset: 0x2669D4, size: 0x8, addend: 0x0, symName: __ZN7gguf_kvC2ItEERKNSt3__112basic_stringIcNS1_11char_traitsIcEENS1_9allocatorIcEEEERKNS1_6vectorIT_NS5_ISB_EEEE, symObjAddr: 0x10200, symBinAddr: 0xB83C0, symSize: 0x1C0 }
  - { offsetInCU: 0x3B3DF, offset: 0x267389, size: 0x8, addend: 0x0, symName: __ZN7gguf_kvC2ItEERKNSt3__112basic_stringIcNS1_11char_traitsIcEENS1_9allocatorIcEEEET_, symObjAddr: 0x10670, symBinAddr: 0xB8830, symSize: 0x150 }
  - { offsetInCU: 0x3BC7C, offset: 0x267C26, size: 0x8, addend: 0x0, symName: __ZNSt3__16vectorI7gguf_kvNS_9allocatorIS1_EEE24__emplace_back_slow_pathIJRKNS_12basic_stringIcNS_11char_traitsIcEENS2_IcEEEERNS0_ItNS2_ItEEEEEEEvDpOT_, symObjAddr: 0xFF50, symBinAddr: 0xB8110, symSize: 0x2B0 }
  - { offsetInCU: 0x3CA0F, offset: 0x2689B9, size: 0x8, addend: 0x0, symName: __ZNSt3__16vectorI7gguf_kvNS_9allocatorIS1_EEE24__emplace_back_slow_pathIJRKNS_12basic_stringIcNS_11char_traitsIcEENS2_IcEEEERtEEEvDpOT_, symObjAddr: 0x103C0, symBinAddr: 0xB8580, symSize: 0x2B0 }
  - { offsetInCU: 0x3DC56, offset: 0x269C00, size: 0x8, addend: 0x0, symName: __ZNSt3__16vectorIsNS_9allocatorIsEEE8__appendEm, symObjAddr: 0x107C0, symBinAddr: 0xB8980, symSize: 0x220 }
  - { offsetInCU: 0x3E248, offset: 0x26A1F2, size: 0x8, addend: 0x0, symName: __ZN7gguf_kvC2IsEERKNSt3__112basic_stringIcNS1_11char_traitsIcEENS1_9allocatorIcEEEERKNS1_6vectorIT_NS5_ISB_EEEE, symObjAddr: 0x10CA0, symBinAddr: 0xB8E60, symSize: 0x1C0 }
  - { offsetInCU: 0x3EBFD, offset: 0x26ABA7, size: 0x8, addend: 0x0, symName: __ZN7gguf_kvC2IsEERKNSt3__112basic_stringIcNS1_11char_traitsIcEENS1_9allocatorIcEEEET_, symObjAddr: 0x11110, symBinAddr: 0xB92D0, symSize: 0x150 }
  - { offsetInCU: 0x3F49A, offset: 0x26B444, size: 0x8, addend: 0x0, symName: __ZNSt3__16vectorI7gguf_kvNS_9allocatorIS1_EEE24__emplace_back_slow_pathIJRKNS_12basic_stringIcNS_11char_traitsIcEENS2_IcEEEERNS0_IsNS2_IsEEEEEEEvDpOT_, symObjAddr: 0x109F0, symBinAddr: 0xB8BB0, symSize: 0x2B0 }
  - { offsetInCU: 0x4022D, offset: 0x26C1D7, size: 0x8, addend: 0x0, symName: __ZNSt3__16vectorI7gguf_kvNS_9allocatorIS1_EEE24__emplace_back_slow_pathIJRKNS_12basic_stringIcNS_11char_traitsIcEENS2_IcEEEERsEEEvDpOT_, symObjAddr: 0x10E60, symBinAddr: 0xB9020, symSize: 0x2B0 }
  - { offsetInCU: 0x41449, offset: 0x26D3F3, size: 0x8, addend: 0x0, symName: __ZNSt3__16vectorIjNS_9allocatorIjEEE8__appendEm, symObjAddr: 0x11260, symBinAddr: 0xB9420, symSize: 0x240 }
  - { offsetInCU: 0x41A3B, offset: 0x26D9E5, size: 0x8, addend: 0x0, symName: __ZN7gguf_kvC2IjEERKNSt3__112basic_stringIcNS1_11char_traitsIcEENS1_9allocatorIcEEEERKNS1_6vectorIT_NS5_ISB_EEEE, symObjAddr: 0x11760, symBinAddr: 0xB9910, symSize: 0x1B0 }
  - { offsetInCU: 0x423F0, offset: 0x26E39A, size: 0x8, addend: 0x0, symName: __ZN7gguf_kvC2IjEERKNSt3__112basic_stringIcNS1_11char_traitsIcEENS1_9allocatorIcEEEET_, symObjAddr: 0x11BC0, symBinAddr: 0xB9D70, symSize: 0x150 }
  - { offsetInCU: 0x42C8D, offset: 0x26EC37, size: 0x8, addend: 0x0, symName: __ZNSt3__16vectorI7gguf_kvNS_9allocatorIS1_EEE24__emplace_back_slow_pathIJRKNS_12basic_stringIcNS_11char_traitsIcEENS2_IcEEEERNS0_IjNS2_IjEEEEEEEvDpOT_, symObjAddr: 0x114B0, symBinAddr: 0xB9660, symSize: 0x2B0 }
  - { offsetInCU: 0x43A20, offset: 0x26F9CA, size: 0x8, addend: 0x0, symName: __ZNSt3__16vectorI7gguf_kvNS_9allocatorIS1_EEE24__emplace_back_slow_pathIJRKNS_12basic_stringIcNS_11char_traitsIcEENS2_IcEEEERjEEEvDpOT_, symObjAddr: 0x11910, symBinAddr: 0xB9AC0, symSize: 0x2B0 }
  - { offsetInCU: 0x44FA1, offset: 0x270F4B, size: 0x8, addend: 0x0, symName: __ZN7gguf_kvC2IiEERKNSt3__112basic_stringIcNS1_11char_traitsIcEENS1_9allocatorIcEEEERKNS1_6vectorIT_NS5_ISB_EEEE, symObjAddr: 0x12210, symBinAddr: 0xBA170, symSize: 0x1B0 }
  - { offsetInCU: 0x45956, offset: 0x271900, size: 0x8, addend: 0x0, symName: __ZN7gguf_kvC2IiEERKNSt3__112basic_stringIcNS1_11char_traitsIcEENS1_9allocatorIcEEEET_, symObjAddr: 0x12670, symBinAddr: 0xBA5D0, symSize: 0x150 }
  - { offsetInCU: 0x461F3, offset: 0x27219D, size: 0x8, addend: 0x0, symName: __ZNSt3__16vectorI7gguf_kvNS_9allocatorIS1_EEE24__emplace_back_slow_pathIJRKNS_12basic_stringIcNS_11char_traitsIcEENS2_IcEEEERNS0_IiNS2_IiEEEEEEEvDpOT_, symObjAddr: 0x11F60, symBinAddr: 0xB9EC0, symSize: 0x2B0 }
  - { offsetInCU: 0x46F86, offset: 0x272F30, size: 0x8, addend: 0x0, symName: __ZNSt3__16vectorI7gguf_kvNS_9allocatorIS1_EEE24__emplace_back_slow_pathIJRKNS_12basic_stringIcNS_11char_traitsIcEENS2_IcEEEERiEEEvDpOT_, symObjAddr: 0x123C0, symBinAddr: 0xBA320, symSize: 0x2B0 }
  - { offsetInCU: 0x48532, offset: 0x2744DC, size: 0x8, addend: 0x0, symName: __ZN7gguf_kvC2IfEERKNSt3__112basic_stringIcNS1_11char_traitsIcEENS1_9allocatorIcEEEERKNS1_6vectorIT_NS5_ISB_EEEE, symObjAddr: 0x12CC0, symBinAddr: 0xBA9D0, symSize: 0x1C0 }
  - { offsetInCU: 0x48EE7, offset: 0x274E91, size: 0x8, addend: 0x0, symName: __ZN7gguf_kvC2IfEERKNSt3__112basic_stringIcNS1_11char_traitsIcEENS1_9allocatorIcEEEET_, symObjAddr: 0x13130, symBinAddr: 0xBAE40, symSize: 0x150 }
  - { offsetInCU: 0x497CC, offset: 0x275776, size: 0x8, addend: 0x0, symName: __ZNSt3__16vectorI7gguf_kvNS_9allocatorIS1_EEE24__emplace_back_slow_pathIJRKNS_12basic_stringIcNS_11char_traitsIcEENS2_IcEEEERNS0_IfNS2_IfEEEEEEEvDpOT_, symObjAddr: 0x12A10, symBinAddr: 0xBA720, symSize: 0x2B0 }
  - { offsetInCU: 0x4A55F, offset: 0x276509, size: 0x8, addend: 0x0, symName: __ZNSt3__16vectorI7gguf_kvNS_9allocatorIS1_EEE24__emplace_back_slow_pathIJRKNS_12basic_stringIcNS_11char_traitsIcEENS2_IcEEEERfEEEvDpOT_, symObjAddr: 0x12E80, symBinAddr: 0xBAB90, symSize: 0x2B0 }
  - { offsetInCU: 0x4B79E, offset: 0x277748, size: 0x8, addend: 0x0, symName: __ZNSt3__16vectorIbNS_9allocatorIbEEE6resizeEmb, symObjAddr: 0x13280, symBinAddr: 0xBAF90, symSize: 0x2A0 }
  - { offsetInCU: 0x4C113, offset: 0x2780BD, size: 0x8, addend: 0x0, symName: __ZN7gguf_kvC2IbEERKNSt3__112basic_stringIcNS1_11char_traitsIcEENS1_9allocatorIcEEEERKNS1_6vectorIT_NS5_ISB_EEEE, symObjAddr: 0x13920, symBinAddr: 0xBB630, symSize: 0x1A0 }
  - { offsetInCU: 0x4CB0E, offset: 0x278AB8, size: 0x8, addend: 0x0, symName: __ZN7gguf_kvC2IbEERKNSt3__112basic_stringIcNS1_11char_traitsIcEENS1_9allocatorIcEEEET_, symObjAddr: 0x13D70, symBinAddr: 0xBBA80, symSize: 0x150 }
  - { offsetInCU: 0x4D3AB, offset: 0x279355, size: 0x8, addend: 0x0, symName: __ZNSt3__16vectorI7gguf_kvNS_9allocatorIS1_EEE24__emplace_back_slow_pathIJRKNS_12basic_stringIcNS_11char_traitsIcEENS2_IcEEEERNS0_IbNS2_IbEEEEEEEvDpOT_, symObjAddr: 0x13670, symBinAddr: 0xBB380, symSize: 0x2B0 }
  - { offsetInCU: 0x4E13E, offset: 0x27A0E8, size: 0x8, addend: 0x0, symName: __ZNSt3__16vectorI7gguf_kvNS_9allocatorIS1_EEE24__emplace_back_slow_pathIJRKNS_12basic_stringIcNS_11char_traitsIcEENS2_IcEEEERbEEEvDpOT_, symObjAddr: 0x13AC0, symBinAddr: 0xBB7D0, symSize: 0x2B0 }
  - { offsetInCU: 0x4F301, offset: 0x27B2AB, size: 0x8, addend: 0x0, symName: __ZNK11gguf_reader4readINSt3__112basic_stringIcNS1_11char_traitsIcEENS1_9allocatorIcEEEEEEbRNS1_6vectorIT_NS5_IS9_EEEEm, symObjAddr: 0x13EC0, symBinAddr: 0xBBBD0, symSize: 0x1A0 }
  - { offsetInCU: 0x4F71D, offset: 0x27B6C7, size: 0x8, addend: 0x0, symName: __ZN7gguf_kvC2ERKNSt3__112basic_stringIcNS0_11char_traitsIcEENS0_9allocatorIcEEEERKNS0_6vectorIS6_NS4_IS6_EEEE, symObjAddr: 0x145A0, symBinAddr: 0xBC240, symSize: 0x160 }
  - { offsetInCU: 0x4FE79, offset: 0x27BE23, size: 0x8, addend: 0x0, symName: __ZNSt3__16vectorI7gguf_kvNS_9allocatorIS1_EEE24__emplace_back_slow_pathIJRKNS_12basic_stringIcNS_11char_traitsIcEENS2_IcEEEERNS0_ISA_NS2_ISA_EEEEEEEvDpOT_, symObjAddr: 0x142F0, symBinAddr: 0xBBF90, symSize: 0x2B0 }
  - { offsetInCU: 0x50C0C, offset: 0x27CBB6, size: 0x8, addend: 0x0, symName: __ZN7gguf_kvC2ERKNSt3__112basic_stringIcNS0_11char_traitsIcEENS0_9allocatorIcEEEES8_, symObjAddr: 0x14D60, symBinAddr: 0xBCA00, symSize: 0x130 }
  - { offsetInCU: 0x512F3, offset: 0x27D29D, size: 0x8, addend: 0x0, symName: __ZNSt3__16vectorI7gguf_kvNS_9allocatorIS1_EEE24__emplace_back_slow_pathIJRKNS_12basic_stringIcNS_11char_traitsIcEENS2_IcEEEERSA_EEEvDpOT_, symObjAddr: 0x14AB0, symBinAddr: 0xBC750, symSize: 0x2B0 }
  - { offsetInCU: 0x526C4, offset: 0x27E66E, size: 0x8, addend: 0x0, symName: __ZNSt3__16vectorIyNS_9allocatorIyEEE8__appendEm, symObjAddr: 0x150C0, symBinAddr: 0xBCB30, symSize: 0x240 }
  - { offsetInCU: 0x52CB6, offset: 0x27EC60, size: 0x8, addend: 0x0, symName: __ZN7gguf_kvC2IyEERKNSt3__112basic_stringIcNS1_11char_traitsIcEENS1_9allocatorIcEEEERKNS1_6vectorIT_NS5_ISB_EEEE, symObjAddr: 0x155C0, symBinAddr: 0xBD030, symSize: 0x1C0 }
  - { offsetInCU: 0x5366B, offset: 0x27F615, size: 0x8, addend: 0x0, symName: __ZN7gguf_kvC2IyEERKNSt3__112basic_stringIcNS1_11char_traitsIcEENS1_9allocatorIcEEEET_, symObjAddr: 0x15A30, symBinAddr: 0xBD4A0, symSize: 0x150 }
  - { offsetInCU: 0x53F08, offset: 0x27FEB2, size: 0x8, addend: 0x0, symName: __ZNSt3__16vectorI7gguf_kvNS_9allocatorIS1_EEE24__emplace_back_slow_pathIJRKNS_12basic_stringIcNS_11char_traitsIcEENS2_IcEEEERNS0_IyNS2_IyEEEEEEEvDpOT_, symObjAddr: 0x15310, symBinAddr: 0xBCD80, symSize: 0x2B0 }
  - { offsetInCU: 0x54C9B, offset: 0x280C45, size: 0x8, addend: 0x0, symName: __ZNSt3__16vectorI7gguf_kvNS_9allocatorIS1_EEE24__emplace_back_slow_pathIJRKNS_12basic_stringIcNS_11char_traitsIcEENS2_IcEEEERyEEEvDpOT_, symObjAddr: 0x15780, symBinAddr: 0xBD1F0, symSize: 0x2B0 }
  - { offsetInCU: 0x5621C, offset: 0x2821C6, size: 0x8, addend: 0x0, symName: __ZN7gguf_kvC2IxEERKNSt3__112basic_stringIcNS1_11char_traitsIcEENS1_9allocatorIcEEEERKNS1_6vectorIT_NS5_ISB_EEEE, symObjAddr: 0x16080, symBinAddr: 0xBD8A0, symSize: 0x1C0 }
  - { offsetInCU: 0x56BD1, offset: 0x282B7B, size: 0x8, addend: 0x0, symName: __ZN7gguf_kvC2IxEERKNSt3__112basic_stringIcNS1_11char_traitsIcEENS1_9allocatorIcEEEET_, symObjAddr: 0x164F0, symBinAddr: 0xBDD10, symSize: 0x150 }
  - { offsetInCU: 0x5746E, offset: 0x283418, size: 0x8, addend: 0x0, symName: __ZNSt3__16vectorI7gguf_kvNS_9allocatorIS1_EEE24__emplace_back_slow_pathIJRKNS_12basic_stringIcNS_11char_traitsIcEENS2_IcEEEERNS0_IxNS2_IxEEEEEEEvDpOT_, symObjAddr: 0x15DD0, symBinAddr: 0xBD5F0, symSize: 0x2B0 }
  - { offsetInCU: 0x58201, offset: 0x2841AB, size: 0x8, addend: 0x0, symName: __ZNSt3__16vectorI7gguf_kvNS_9allocatorIS1_EEE24__emplace_back_slow_pathIJRKNS_12basic_stringIcNS_11char_traitsIcEENS2_IcEEEERxEEEvDpOT_, symObjAddr: 0x16240, symBinAddr: 0xBDA60, symSize: 0x2B0 }
  - { offsetInCU: 0x59450, offset: 0x2853FA, size: 0x8, addend: 0x0, symName: __ZNSt3__16vectorIdNS_9allocatorIdEEE8__appendEm, symObjAddr: 0x16640, symBinAddr: 0xBDE60, symSize: 0x240 }
  - { offsetInCU: 0x59A42, offset: 0x2859EC, size: 0x8, addend: 0x0, symName: __ZN7gguf_kvC2IdEERKNSt3__112basic_stringIcNS1_11char_traitsIcEENS1_9allocatorIcEEEERKNS1_6vectorIT_NS5_ISB_EEEE, symObjAddr: 0x16B40, symBinAddr: 0xBE350, symSize: 0x1C0 }
  - { offsetInCU: 0x5A3F7, offset: 0x2863A1, size: 0x8, addend: 0x0, symName: __ZN7gguf_kvC2IdEERKNSt3__112basic_stringIcNS1_11char_traitsIcEENS1_9allocatorIcEEEET_, symObjAddr: 0x16FB0, symBinAddr: 0xBE7C0, symSize: 0x150 }
  - { offsetInCU: 0x5ACDC, offset: 0x286C86, size: 0x8, addend: 0x0, symName: __ZNSt3__16vectorI7gguf_kvNS_9allocatorIS1_EEE24__emplace_back_slow_pathIJRKNS_12basic_stringIcNS_11char_traitsIcEENS2_IcEEEERNS0_IdNS2_IdEEEEEEEvDpOT_, symObjAddr: 0x16890, symBinAddr: 0xBE0A0, symSize: 0x2B0 }
  - { offsetInCU: 0x5BA6F, offset: 0x287A19, size: 0x8, addend: 0x0, symName: __ZNSt3__16vectorI7gguf_kvNS_9allocatorIS1_EEE24__emplace_back_slow_pathIJRKNS_12basic_stringIcNS_11char_traitsIcEENS2_IcEEEERdEEEvDpOT_, symObjAddr: 0x16D00, symBinAddr: 0xBE510, symSize: 0x2B0 }
  - { offsetInCU: 0x5C7FB, offset: 0x2887A5, size: 0x8, addend: 0x0, symName: _gguf_find_key, symObjAddr: 0x3440, symBinAddr: 0xAB8B0, symSize: 0xB0 }
  - { offsetInCU: 0x5C9DC, offset: 0x288986, size: 0x8, addend: 0x0, symName: __ZNK7gguf_kv6get_neEv, symObjAddr: 0x3E80, symBinAddr: 0xAC2F0, symSize: 0x130 }
  - { offsetInCU: 0x5CF95, offset: 0x288F3F, size: 0x8, addend: 0x0, symName: __ZNKSt3__16vectorI16gguf_tensor_infoNS_9allocatorIS1_EEE20__throw_length_errorB8ue170006Ev, symObjAddr: 0x17100, symBinAddr: 0xBE910, symSize: 0x10 }
  - { offsetInCU: 0x5CFBF, offset: 0x288F69, size: 0x8, addend: 0x0, symName: __ZN7gguf_kvaSEOS_, symObjAddr: 0x17110, symBinAddr: 0xBE920, symSize: 0x120 }
  - { offsetInCU: 0x5CFCA, offset: 0x288F74, size: 0x8, addend: 0x0, symName: _gguf_init_from_file, symObjAddr: 0x3800, symBinAddr: 0xABC70, symSize: 0x70 }
  - { offsetInCU: 0x5D1C2, offset: 0x28916C, size: 0x8, addend: 0x0, symName: _gguf_type_name, symObjAddr: 0x3870, symBinAddr: 0xABCE0, symSize: 0x60 }
  - { offsetInCU: 0x5D326, offset: 0x2892D0, size: 0x8, addend: 0x0, symName: _gguf_get_version, symObjAddr: 0x38D0, symBinAddr: 0xABD40, symSize: 0x10 }
  - { offsetInCU: 0x5D351, offset: 0x2892FB, size: 0x8, addend: 0x0, symName: _gguf_get_alignment, symObjAddr: 0x38E0, symBinAddr: 0xABD50, symSize: 0x10 }
  - { offsetInCU: 0x5D37C, offset: 0x289326, size: 0x8, addend: 0x0, symName: _gguf_get_data_offset, symObjAddr: 0x38F0, symBinAddr: 0xABD60, symSize: 0x10 }
  - { offsetInCU: 0x5D3A7, offset: 0x289351, size: 0x8, addend: 0x0, symName: _gguf_get_n_kv, symObjAddr: 0x3900, symBinAddr: 0xABD70, symSize: 0x20 }
  - { offsetInCU: 0x5D3FB, offset: 0x2893A5, size: 0x8, addend: 0x0, symName: _gguf_get_key, symObjAddr: 0x3920, symBinAddr: 0xABD90, symSize: 0x70 }
  - { offsetInCU: 0x5D542, offset: 0x2894EC, size: 0x8, addend: 0x0, symName: _gguf_get_kv_type, symObjAddr: 0x3990, symBinAddr: 0xABE00, symSize: 0x70 }
  - { offsetInCU: 0x5D5D7, offset: 0x289581, size: 0x8, addend: 0x0, symName: _gguf_get_arr_type, symObjAddr: 0x3A00, symBinAddr: 0xABE70, symSize: 0x90 }
  - { offsetInCU: 0x5D6AF, offset: 0x289659, size: 0x8, addend: 0x0, symName: _gguf_get_arr_data, symObjAddr: 0x3A90, symBinAddr: 0xABF00, symSize: 0x90 }
  - { offsetInCU: 0x5D7C2, offset: 0x28976C, size: 0x8, addend: 0x0, symName: _gguf_get_arr_str, symObjAddr: 0x3B20, symBinAddr: 0xABF90, symSize: 0xA0 }
  - { offsetInCU: 0x5D987, offset: 0x289931, size: 0x8, addend: 0x0, symName: _gguf_get_arr_n, symObjAddr: 0x3BC0, symBinAddr: 0xAC030, symSize: 0x120 }
  - { offsetInCU: 0x5DBF1, offset: 0x289B9B, size: 0x8, addend: 0x0, symName: _gguf_get_val_u8, symObjAddr: 0x3CE0, symBinAddr: 0xAC150, symSize: 0x1A0 }
  - { offsetInCU: 0x5DEE3, offset: 0x289E8D, size: 0x8, addend: 0x0, symName: _gguf_get_val_i8, symObjAddr: 0x3FB0, symBinAddr: 0xAC420, symSize: 0x1A0 }
  - { offsetInCU: 0x5E1D5, offset: 0x28A17F, size: 0x8, addend: 0x0, symName: _gguf_get_val_u16, symObjAddr: 0x4150, symBinAddr: 0xAC5C0, symSize: 0x1A0 }
  - { offsetInCU: 0x5E4C7, offset: 0x28A471, size: 0x8, addend: 0x0, symName: _gguf_get_val_i16, symObjAddr: 0x42F0, symBinAddr: 0xAC760, symSize: 0x1A0 }
  - { offsetInCU: 0x5E7B9, offset: 0x28A763, size: 0x8, addend: 0x0, symName: _gguf_get_val_i32, symObjAddr: 0x4490, symBinAddr: 0xAC900, symSize: 0x1A0 }
  - { offsetInCU: 0x5EAAB, offset: 0x28AA55, size: 0x8, addend: 0x0, symName: _gguf_get_val_f32, symObjAddr: 0x4630, symBinAddr: 0xACAA0, symSize: 0x1A0 }
  - { offsetInCU: 0x5ED9D, offset: 0x28AD47, size: 0x8, addend: 0x0, symName: _gguf_get_val_u64, symObjAddr: 0x47D0, symBinAddr: 0xACC40, symSize: 0x1A0 }
  - { offsetInCU: 0x5F08F, offset: 0x28B039, size: 0x8, addend: 0x0, symName: _gguf_get_val_i64, symObjAddr: 0x4970, symBinAddr: 0xACDE0, symSize: 0x1A0 }
  - { offsetInCU: 0x5F381, offset: 0x28B32B, size: 0x8, addend: 0x0, symName: _gguf_get_val_f64, symObjAddr: 0x4B10, symBinAddr: 0xACF80, symSize: 0x1A0 }
  - { offsetInCU: 0x5F673, offset: 0x28B61D, size: 0x8, addend: 0x0, symName: _gguf_get_val_bool, symObjAddr: 0x4CB0, symBinAddr: 0xAD120, symSize: 0x1A0 }
  - { offsetInCU: 0x5F92E, offset: 0x28B8D8, size: 0x8, addend: 0x0, symName: __ZNK7gguf_kv7get_valIbEERKT_m, symObjAddr: 0x4E50, symBinAddr: 0xAD2C0, symSize: 0x110 }
  - { offsetInCU: 0x5FB3E, offset: 0x28BAE8, size: 0x8, addend: 0x0, symName: _gguf_get_val_str, symObjAddr: 0x4F60, symBinAddr: 0xAD3D0, symSize: 0x100 }
  - { offsetInCU: 0x5FD37, offset: 0x28BCE1, size: 0x8, addend: 0x0, symName: _gguf_get_val_data, symObjAddr: 0x5060, symBinAddr: 0xAD4D0, symSize: 0xC0 }
  - { offsetInCU: 0x5FE3E, offset: 0x28BDE8, size: 0x8, addend: 0x0, symName: _gguf_get_n_tensors, symObjAddr: 0x5120, symBinAddr: 0xAD590, symSize: 0x20 }
  - { offsetInCU: 0x5FE53, offset: 0x28BDFD, size: 0x8, addend: 0x0, symName: _gguf_get_n_tensors, symObjAddr: 0x5120, symBinAddr: 0xAD590, symSize: 0x20 }
  - { offsetInCU: 0x5FEAC, offset: 0x28BE56, size: 0x8, addend: 0x0, symName: _gguf_find_tensor, symObjAddr: 0x5140, symBinAddr: 0xAD5B0, symSize: 0xA0 }
  - { offsetInCU: 0x5FF2A, offset: 0x28BED4, size: 0x8, addend: 0x0, symName: _gguf_get_tensor_name, symObjAddr: 0x51E0, symBinAddr: 0xAD650, symSize: 0x60 }
  - { offsetInCU: 0x5FFBF, offset: 0x28BF69, size: 0x8, addend: 0x0, symName: _gguf_get_tensor_offset, symObjAddr: 0x5240, symBinAddr: 0xAD6B0, symSize: 0x60 }
  - { offsetInCU: 0x60078, offset: 0x28C022, size: 0x8, addend: 0x0, symName: _gguf_get_tensor_type, symObjAddr: 0x52A0, symBinAddr: 0xAD710, symSize: 0x60 }
  - { offsetInCU: 0x6012C, offset: 0x28C0D6, size: 0x8, addend: 0x0, symName: _gguf_get_tensor_size, symObjAddr: 0x5300, symBinAddr: 0xAD770, symSize: 0x60 }
  - { offsetInCU: 0x602CF, offset: 0x28C279, size: 0x8, addend: 0x0, symName: _gguf_remove_key, symObjAddr: 0x5360, symBinAddr: 0xAD7D0, symSize: 0x110 }
  - { offsetInCU: 0x605EF, offset: 0x28C599, size: 0x8, addend: 0x0, symName: __ZN7gguf_kvaSEOS_, symObjAddr: 0x17110, symBinAddr: 0xBE920, symSize: 0x120 }
  - { offsetInCU: 0x6106F, offset: 0x28D019, size: 0x8, addend: 0x0, symName: _gguf_set_val_u8, symObjAddr: 0x5470, symBinAddr: 0xAD8E0, symSize: 0x2B0 }
  - { offsetInCU: 0x61C50, offset: 0x28DBFA, size: 0x8, addend: 0x0, symName: __ZNSt3__19allocatorI7gguf_kvE9constructB8ue170006IS1_JRPKcRhEEEvPT_DpOT0_, symObjAddr: 0x174F0, symBinAddr: 0xBED00, symSize: 0xE0 }
  - { offsetInCU: 0x623CA, offset: 0x28E374, size: 0x8, addend: 0x0, symName: __ZNSt3__16vectorI7gguf_kvNS_9allocatorIS1_EEE24__emplace_back_slow_pathIJRPKcRhEEEvDpOT_, symObjAddr: 0x17230, symBinAddr: 0xBEA40, symSize: 0x2C0 }
  - { offsetInCU: 0x630D0, offset: 0x28F07A, size: 0x8, addend: 0x0, symName: __ZNSt3__114__split_bufferI7gguf_kvRNS_9allocatorIS1_EEED1Ev, symObjAddr: 0xEC40, symBinAddr: 0xB6E00, symSize: 0x30 }
  - { offsetInCU: 0x631E8, offset: 0x28F192, size: 0x8, addend: 0x0, symName: _gguf_set_val_i8, symObjAddr: 0x5720, symBinAddr: 0xADB90, symSize: 0x2B0 }
  - { offsetInCU: 0x63DC9, offset: 0x28FD73, size: 0x8, addend: 0x0, symName: __ZNSt3__19allocatorI7gguf_kvE9constructB8ue170006IS1_JRPKcRaEEEvPT_DpOT0_, symObjAddr: 0x17890, symBinAddr: 0xBF0A0, symSize: 0xE0 }
  - { offsetInCU: 0x64543, offset: 0x2904ED, size: 0x8, addend: 0x0, symName: __ZNSt3__16vectorI7gguf_kvNS_9allocatorIS1_EEE24__emplace_back_slow_pathIJRPKcRaEEEvDpOT_, symObjAddr: 0x175D0, symBinAddr: 0xBEDE0, symSize: 0x2C0 }
  - { offsetInCU: 0x6533E, offset: 0x2912E8, size: 0x8, addend: 0x0, symName: _gguf_set_val_u16, symObjAddr: 0x59D0, symBinAddr: 0xADE40, symSize: 0x2B0 }
  - { offsetInCU: 0x65F1F, offset: 0x291EC9, size: 0x8, addend: 0x0, symName: __ZNSt3__19allocatorI7gguf_kvE9constructB8ue170006IS1_JRPKcRtEEEvPT_DpOT0_, symObjAddr: 0x17C30, symBinAddr: 0xBF440, symSize: 0xE0 }
  - { offsetInCU: 0x66699, offset: 0x292643, size: 0x8, addend: 0x0, symName: __ZNSt3__16vectorI7gguf_kvNS_9allocatorIS1_EEE24__emplace_back_slow_pathIJRPKcRtEEEvDpOT_, symObjAddr: 0x17970, symBinAddr: 0xBF180, symSize: 0x2C0 }
  - { offsetInCU: 0x67494, offset: 0x29343E, size: 0x8, addend: 0x0, symName: _gguf_set_val_i16, symObjAddr: 0x5C80, symBinAddr: 0xAE0F0, symSize: 0x2B0 }
  - { offsetInCU: 0x68075, offset: 0x29401F, size: 0x8, addend: 0x0, symName: __ZNSt3__19allocatorI7gguf_kvE9constructB8ue170006IS1_JRPKcRsEEEvPT_DpOT0_, symObjAddr: 0x17FD0, symBinAddr: 0xBF7E0, symSize: 0xE0 }
  - { offsetInCU: 0x687EF, offset: 0x294799, size: 0x8, addend: 0x0, symName: __ZNSt3__16vectorI7gguf_kvNS_9allocatorIS1_EEE24__emplace_back_slow_pathIJRPKcRsEEEvDpOT_, symObjAddr: 0x17D10, symBinAddr: 0xBF520, symSize: 0x2C0 }
  - { offsetInCU: 0x695EA, offset: 0x295594, size: 0x8, addend: 0x0, symName: _gguf_set_val_u32, symObjAddr: 0x5F30, symBinAddr: 0xAE3A0, symSize: 0x290 }
  - { offsetInCU: 0x6A268, offset: 0x296212, size: 0x8, addend: 0x0, symName: __ZNSt3__19allocatorI7gguf_kvE9constructB8ue170006IS1_JRPKcRjEEEvPT_DpOT0_, symObjAddr: 0x18370, symBinAddr: 0xBFB80, symSize: 0xE0 }
  - { offsetInCU: 0x6A9EA, offset: 0x296994, size: 0x8, addend: 0x0, symName: __ZNSt3__16vectorI7gguf_kvNS_9allocatorIS1_EEE24__emplace_back_slow_pathIJRPKcRjEEEvDpOT_, symObjAddr: 0x180B0, symBinAddr: 0xBF8C0, symSize: 0x2C0 }
  - { offsetInCU: 0x6B7E5, offset: 0x29778F, size: 0x8, addend: 0x0, symName: _gguf_set_val_i32, symObjAddr: 0x61C0, symBinAddr: 0xAE630, symSize: 0x2B0 }
  - { offsetInCU: 0x6C3C6, offset: 0x298370, size: 0x8, addend: 0x0, symName: __ZNSt3__19allocatorI7gguf_kvE9constructB8ue170006IS1_JRPKcRiEEEvPT_DpOT0_, symObjAddr: 0x18710, symBinAddr: 0xBFF20, symSize: 0xE0 }
  - { offsetInCU: 0x6CB48, offset: 0x298AF2, size: 0x8, addend: 0x0, symName: __ZNSt3__16vectorI7gguf_kvNS_9allocatorIS1_EEE24__emplace_back_slow_pathIJRPKcRiEEEvDpOT_, symObjAddr: 0x18450, symBinAddr: 0xBFC60, symSize: 0x2C0 }
  - { offsetInCU: 0x6D943, offset: 0x2998ED, size: 0x8, addend: 0x0, symName: _gguf_set_val_f32, symObjAddr: 0x6470, symBinAddr: 0xAE8E0, symSize: 0x2C0 }
  - { offsetInCU: 0x6E524, offset: 0x29A4CE, size: 0x8, addend: 0x0, symName: __ZNSt3__19allocatorI7gguf_kvE9constructB8ue170006IS1_JRPKcRfEEEvPT_DpOT0_, symObjAddr: 0x18AB0, symBinAddr: 0xC02C0, symSize: 0xE0 }
  - { offsetInCU: 0x6ECA6, offset: 0x29AC50, size: 0x8, addend: 0x0, symName: __ZNSt3__16vectorI7gguf_kvNS_9allocatorIS1_EEE24__emplace_back_slow_pathIJRPKcRfEEEvDpOT_, symObjAddr: 0x187F0, symBinAddr: 0xC0000, symSize: 0x2C0 }
  - { offsetInCU: 0x6FAA1, offset: 0x29BA4B, size: 0x8, addend: 0x0, symName: _gguf_set_val_u64, symObjAddr: 0x6730, symBinAddr: 0xAEBA0, symSize: 0x2B0 }
  - { offsetInCU: 0x70678, offset: 0x29C622, size: 0x8, addend: 0x0, symName: __ZNSt3__19allocatorI7gguf_kvE9constructB8ue170006IS1_JRPKcRyEEEvPT_DpOT0_, symObjAddr: 0x18E50, symBinAddr: 0xC0660, symSize: 0xE0 }
  - { offsetInCU: 0x70DFA, offset: 0x29CDA4, size: 0x8, addend: 0x0, symName: __ZNSt3__16vectorI7gguf_kvNS_9allocatorIS1_EEE24__emplace_back_slow_pathIJRPKcRyEEEvDpOT_, symObjAddr: 0x18B90, symBinAddr: 0xC03A0, symSize: 0x2C0 }
  - { offsetInCU: 0x71BF5, offset: 0x29DB9F, size: 0x8, addend: 0x0, symName: _gguf_set_val_i64, symObjAddr: 0x69E0, symBinAddr: 0xAEE50, symSize: 0x2B0 }
  - { offsetInCU: 0x727CC, offset: 0x29E776, size: 0x8, addend: 0x0, symName: __ZNSt3__19allocatorI7gguf_kvE9constructB8ue170006IS1_JRPKcRxEEEvPT_DpOT0_, symObjAddr: 0x191F0, symBinAddr: 0xC0A00, symSize: 0xE0 }
  - { offsetInCU: 0x72F4E, offset: 0x29EEF8, size: 0x8, addend: 0x0, symName: __ZNSt3__16vectorI7gguf_kvNS_9allocatorIS1_EEE24__emplace_back_slow_pathIJRPKcRxEEEvDpOT_, symObjAddr: 0x18F30, symBinAddr: 0xC0740, symSize: 0x2C0 }
  - { offsetInCU: 0x73D49, offset: 0x29FCF3, size: 0x8, addend: 0x0, symName: _gguf_set_val_f64, symObjAddr: 0x6C90, symBinAddr: 0xAF100, symSize: 0x2C0 }
  - { offsetInCU: 0x74920, offset: 0x2A08CA, size: 0x8, addend: 0x0, symName: __ZNSt3__19allocatorI7gguf_kvE9constructB8ue170006IS1_JRPKcRdEEEvPT_DpOT0_, symObjAddr: 0x19590, symBinAddr: 0xC0DA0, symSize: 0xE0 }
  - { offsetInCU: 0x750A2, offset: 0x2A104C, size: 0x8, addend: 0x0, symName: __ZNSt3__16vectorI7gguf_kvNS_9allocatorIS1_EEE24__emplace_back_slow_pathIJRPKcRdEEEvDpOT_, symObjAddr: 0x192D0, symBinAddr: 0xC0AE0, symSize: 0x2C0 }
  - { offsetInCU: 0x75E9D, offset: 0x2A1E47, size: 0x8, addend: 0x0, symName: _gguf_set_val_bool, symObjAddr: 0x6F50, symBinAddr: 0xAF3C0, symSize: 0x2B0 }
  - { offsetInCU: 0x76A7E, offset: 0x2A2A28, size: 0x8, addend: 0x0, symName: __ZNSt3__19allocatorI7gguf_kvE9constructB8ue170006IS1_JRPKcRbEEEvPT_DpOT0_, symObjAddr: 0x19930, symBinAddr: 0xC1140, symSize: 0xE0 }
  - { offsetInCU: 0x771F8, offset: 0x2A31A2, size: 0x8, addend: 0x0, symName: __ZNSt3__16vectorI7gguf_kvNS_9allocatorIS1_EEE24__emplace_back_slow_pathIJRPKcRbEEEvDpOT_, symObjAddr: 0x19670, symBinAddr: 0xC0E80, symSize: 0x2C0 }
  - { offsetInCU: 0x77FF9, offset: 0x2A3FA3, size: 0x8, addend: 0x0, symName: _gguf_set_val_str, symObjAddr: 0x7200, symBinAddr: 0xAF670, symSize: 0x330 }
  - { offsetInCU: 0x790C6, offset: 0x2A5070, size: 0x8, addend: 0x0, symName: __ZNSt3__19allocatorI7gguf_kvE9constructB8ue170006IS1_JRPKcNS_12basic_stringIcNS_11char_traitsIcEENS0_IcEEEEEEEvPT_DpOT0_, symObjAddr: 0x19CD0, symBinAddr: 0xC14E0, symSize: 0xE0 }
  - { offsetInCU: 0x7984F, offset: 0x2A57F9, size: 0x8, addend: 0x0, symName: __ZNSt3__16vectorI7gguf_kvNS_9allocatorIS1_EEE24__emplace_back_slow_pathIJRPKcNS_12basic_stringIcNS_11char_traitsIcEENS2_IcEEEEEEEvDpOT_, symObjAddr: 0x19A10, symBinAddr: 0xC1220, symSize: 0x2C0 }
  - { offsetInCU: 0x7A85D, offset: 0x2A6807, size: 0x8, addend: 0x0, symName: _gguf_set_arr_data, symObjAddr: 0x7530, symBinAddr: 0xAF9A0, symSize: 0x470 }
  - { offsetInCU: 0x7BA12, offset: 0x2A79BC, size: 0x8, addend: 0x0, symName: __ZNSt3__19allocatorI7gguf_kvE9constructB8ue170006IS1_JRPKcRNS_6vectorIaNS0_IaEEEEEEEvPT_DpOT0_, symObjAddr: 0x1A070, symBinAddr: 0xC1880, symSize: 0xE0 }
  - { offsetInCU: 0x7C19B, offset: 0x2A8145, size: 0x8, addend: 0x0, symName: __ZNSt3__16vectorI7gguf_kvNS_9allocatorIS1_EEE24__emplace_back_slow_pathIJRPKcRNS0_IaNS2_IaEEEEEEEvDpOT_, symObjAddr: 0x19DB0, symBinAddr: 0xC15C0, symSize: 0x2C0 }
  - { offsetInCU: 0x7CE89, offset: 0x2A8E33, size: 0x8, addend: 0x0, symName: __ZNKSt3__16vectorIaNS_9allocatorIaEEE20__throw_length_errorB8ue170006Ev, symObjAddr: 0xCD10, symBinAddr: 0xB5110, symSize: 0x10 }
  - { offsetInCU: 0x7CFED, offset: 0x2A8F97, size: 0x8, addend: 0x0, symName: _gguf_set_arr_str, symObjAddr: 0x79A0, symBinAddr: 0xAFE10, symSize: 0x350 }
  - { offsetInCU: 0x7DF3B, offset: 0x2A9EE5, size: 0x8, addend: 0x0, symName: __ZNSt3__16vectorINS_12basic_stringIcNS_11char_traitsIcEENS_9allocatorIcEEEENS4_IS6_EEEC1Em, symObjAddr: 0x7CF0, symBinAddr: 0xB0160, symSize: 0xD0 }
  - { offsetInCU: 0x7E1EB, offset: 0x2AA195, size: 0x8, addend: 0x0, symName: __ZNSt3__19allocatorI7gguf_kvE9constructB8ue170006IS1_JRPKcRNS_6vectorINS_12basic_stringIcNS_11char_traitsIcEENS0_IcEEEENS0_ISC_EEEEEEEvPT_DpOT0_, symObjAddr: 0x1A410, symBinAddr: 0xC1C20, symSize: 0xE0 }
  - { offsetInCU: 0x7E974, offset: 0x2AA91E, size: 0x8, addend: 0x0, symName: __ZNSt3__16vectorI7gguf_kvNS_9allocatorIS1_EEE24__emplace_back_slow_pathIJRPKcRNS0_INS_12basic_stringIcNS_11char_traitsIcEENS2_IcEEEENS2_ISD_EEEEEEEvDpOT_, symObjAddr: 0x1A150, symBinAddr: 0xC1960, symSize: 0x2C0 }
  - { offsetInCU: 0x7F840, offset: 0x2AB7EA, size: 0x8, addend: 0x0, symName: __ZNSt3__16vectorI7gguf_kvNS_9allocatorIS1_EEE24__emplace_back_slow_pathIJRKNS_12basic_stringIcNS_11char_traitsIcEENS2_IcEEEERNS0_ISA_NS2_ISA_EEEEEEEvDpOT_, symObjAddr: 0x142F0, symBinAddr: 0xBBF90, symSize: 0x2B0 }
  - { offsetInCU: 0x7F84B, offset: 0x2AB7F5, size: 0x8, addend: 0x0, symName: __ZNSt3__16vectorINS_12basic_stringIcNS_11char_traitsIcEENS_9allocatorIcEEEENS4_IS6_EEEC1Em.cold.1, symObjAddr: 0x1A500, symBinAddr: 0x160090, symSize: 0x50 }
  - { offsetInCU: 0x7FDD3, offset: 0x2ABD7D, size: 0x8, addend: 0x0, symName: _gguf_set_kv, symObjAddr: 0x7E30, symBinAddr: 0xB0230, symSize: 0xCD0 }
  - { offsetInCU: 0x8205C, offset: 0x2AE006, size: 0x8, addend: 0x0, symName: __ZNKSt3__16vectorIPKcNS_9allocatorIS2_EEE20__throw_length_errorB8ue170006Ev, symObjAddr: 0x1A4F0, symBinAddr: 0xC1D00, symSize: 0x10 }
  - { offsetInCU: 0x82086, offset: 0x2AE030, size: 0x8, addend: 0x0, symName: __ZNSt3__16vectorINS_12basic_stringIcNS_11char_traitsIcEENS_9allocatorIcEEEENS4_IS6_EEEC1Em.cold.1, symObjAddr: 0x1A500, symBinAddr: 0x160090, symSize: 0x50 }
  - { offsetInCU: 0x82132, offset: 0x2AE0DC, size: 0x8, addend: 0x0, symName: _gguf_add_tensor, symObjAddr: 0x8B00, symBinAddr: 0xB0F00, symSize: 0x310 }
  - { offsetInCU: 0x8281D, offset: 0x2AE7C7, size: 0x8, addend: 0x0, symName: _gguf_set_tensor_type, symObjAddr: 0x8E10, symBinAddr: 0xB1210, symSize: 0x1E0 }
  - { offsetInCU: 0x82A3C, offset: 0x2AE9E6, size: 0x8, addend: 0x0, symName: _gguf_set_tensor_data, symObjAddr: 0x8FF0, symBinAddr: 0xB13F0, symSize: 0xA0 }
  - { offsetInCU: 0x8311A, offset: 0x2AF0C4, size: 0x8, addend: 0x0, symName: __Z17gguf_write_to_bufPK12gguf_contextRNSt3__16vectorIaNS2_9allocatorIaEEEEb, symObjAddr: 0x9090, symBinAddr: 0xB1490, symSize: 0x11E0 }
  - { offsetInCU: 0x85554, offset: 0x2B14FE, size: 0x8, addend: 0x0, symName: __ZNK11gguf_writer5writeIjEEvRKT_, symObjAddr: 0xA270, symBinAddr: 0xB2670, symSize: 0xB70 }
  - { offsetInCU: 0x85AC9, offset: 0x2B1A73, size: 0x8, addend: 0x0, symName: __ZNK11gguf_writer5writeERK7gguf_kv, symObjAddr: 0xADE0, symBinAddr: 0xB31E0, symSize: 0x770 }
  - { offsetInCU: 0x86966, offset: 0x2B2910, size: 0x8, addend: 0x0, symName: __ZNK11gguf_writer17write_tensor_metaERK16gguf_tensor_info, symObjAddr: 0xB550, symBinAddr: 0xB3950, symSize: 0x680 }
  - { offsetInCU: 0x875E0, offset: 0x2B358A, size: 0x8, addend: 0x0, symName: __ZNK11gguf_writer3padEm, symObjAddr: 0xBBD0, symBinAddr: 0xB3FD0, symSize: 0x3B0 }
  - { offsetInCU: 0x87B97, offset: 0x2B3B41, size: 0x8, addend: 0x0, symName: __ZNK11gguf_writer17write_tensor_dataERK16gguf_tensor_infomm, symObjAddr: 0xBF80, symBinAddr: 0xB4380, symSize: 0x480 }
  - { offsetInCU: 0x8835C, offset: 0x2B4306, size: 0x8, addend: 0x0, symName: _gguf_write_to_file, symObjAddr: 0xC400, symBinAddr: 0xB4800, symSize: 0xE0 }
  - { offsetInCU: 0x884F4, offset: 0x2B449E, size: 0x8, addend: 0x0, symName: __ZNK11gguf_writer5writeERKNSt3__112basic_stringIcNS0_11char_traitsIcEENS0_9allocatorIcEEEE, symObjAddr: 0xC680, symBinAddr: 0xB4A80, symSize: 0x690 }
  - { offsetInCU: 0x89140, offset: 0x2B50EA, size: 0x8, addend: 0x0, symName: __ZNK11gguf_writer5writeIiEEvRKT_, symObjAddr: 0xCDE0, symBinAddr: 0xB5120, symSize: 0xB70 }
  - { offsetInCU: 0x896B5, offset: 0x2B565F, size: 0x8, addend: 0x0, symName: __ZNSt3__16vectorIaNS_9allocatorIaEEE18__insert_with_sizeB8ue170006INS_11__wrap_iterIPKaEES8_EENS5_IPaEES8_T_T0_l, symObjAddr: 0xD950, symBinAddr: 0xB5C90, symSize: 0x560 }
  - { offsetInCU: 0x8A430, offset: 0x2B63DA, size: 0x8, addend: 0x0, symName: __ZNK11gguf_writer5writeEPKc, symObjAddr: 0xDEB0, symBinAddr: 0xB61F0, symSize: 0xD0 }
  - { offsetInCU: 0x8AD67, offset: 0x2B6D11, size: 0x8, addend: 0x0, symName: _gguf_write_to_file, symObjAddr: 0xC400, symBinAddr: 0xB4800, symSize: 0xE0 }
  - { offsetInCU: 0x8B1E4, offset: 0x2B718E, size: 0x8, addend: 0x0, symName: _gguf_get_meta_size, symObjAddr: 0xC4E0, symBinAddr: 0xB48E0, symSize: 0x70 }
  - { offsetInCU: 0x8B588, offset: 0x2B7532, size: 0x8, addend: 0x0, symName: _gguf_get_meta_data, symObjAddr: 0xC550, symBinAddr: 0xB4950, symSize: 0x80 }
  - { offsetInCU: 0x8C267, offset: 0x2B8211, size: 0x8, addend: 0x0, symName: __ZNSt3__13mapI9gguf_typemNS_4lessIS1_EENS_9allocatorINS_4pairIKS1_mEEEEEC2B8ue170006ESt16initializer_listIS7_ERKS3_, symObjAddr: 0xDF80, symBinAddr: 0xB62C0, symSize: 0x170 }
  - { offsetInCU: 0x8CCEC, offset: 0x2B8C96, size: 0x8, addend: 0x0, symName: __ZNSt3__13mapI9gguf_typePKcNS_4lessIS1_EENS_9allocatorINS_4pairIKS1_S3_EEEEEC2B8ue170006ESt16initializer_listIS9_ERKS5_, symObjAddr: 0xE290, symBinAddr: 0xB6470, symSize: 0x170 }
  - { offsetInCU: 0x8D7F5, offset: 0x2B979F, size: 0x8, addend: 0x0, symName: __ZNSt3__16vectorI7gguf_kvNS_9allocatorIS1_EEE24__emplace_back_slow_pathIJRKNS_12basic_stringIcNS_11char_traitsIcEENS2_IcEEEERNS0_IhNS2_IhEEEEEEEvDpOT_, symObjAddr: 0xE7E0, symBinAddr: 0xB69B0, symSize: 0x2B0 }
  - { offsetInCU: 0x8DCAE, offset: 0x2B9C58, size: 0x8, addend: 0x0, symName: __ZNKSt3__16vectorI7gguf_kvNS_9allocatorIS1_EEE20__throw_length_errorB8ue170006Ev, symObjAddr: 0xEC70, symBinAddr: 0xB6E30, symSize: 0x10 }
  - { offsetInCU: 0x8DCD8, offset: 0x2B9C82, size: 0x8, addend: 0x0, symName: __ZNSt3__114__split_bufferI7gguf_kvRNS_9allocatorIS1_EEE17__destruct_at_endB8ue170006EPS1_, symObjAddr: 0xEC80, symBinAddr: 0xB6E40, symSize: 0xD0 }
  - { offsetInCU: 0x8DCE3, offset: 0x2B9C8D, size: 0x8, addend: 0x0, symName: __ZNSt3__114__split_bufferI7gguf_kvRNS_9allocatorIS1_EEED1Ev, symObjAddr: 0xEC40, symBinAddr: 0xB6E00, symSize: 0x30 }
  - { offsetInCU: 0x8DE9D, offset: 0x2B9E47, size: 0x8, addend: 0x0, symName: __ZN7gguf_kvC2IhEERKNSt3__112basic_stringIcNS1_11char_traitsIcEENS1_9allocatorIcEEEERKNS1_6vectorIT_NS5_ISB_EEEE.cold.1, symObjAddr: 0x1A550, symBinAddr: 0x1600E0, symSize: 0x20 }
  - { offsetInCU: 0x8DFB0, offset: 0x2B9F5A, size: 0x8, addend: 0x0, symName: __ZNSt3__114__split_bufferI7gguf_kvRNS_9allocatorIS1_EEE17__destruct_at_endB8ue170006EPS1_, symObjAddr: 0xEC80, symBinAddr: 0xB6E40, symSize: 0xD0 }
  - { offsetInCU: 0x8E5E9, offset: 0x2BA593, size: 0x8, addend: 0x0, symName: __ZN7gguf_kvC2IhEERKNSt3__112basic_stringIcNS1_11char_traitsIcEENS1_9allocatorIcEEEET_.cold.1, symObjAddr: 0x1A570, symBinAddr: 0x160100, symSize: 0x20 }
  - { offsetInCU: 0x8E720, offset: 0x2BA6CA, size: 0x8, addend: 0x0, symName: __ZN7gguf_kvC2IaEERKNSt3__112basic_stringIcNS1_11char_traitsIcEENS1_9allocatorIcEEEERKNS1_6vectorIT_NS5_ISB_EEEE.cold.1, symObjAddr: 0x1A590, symBinAddr: 0x160120, symSize: 0x20 }
  - { offsetInCU: 0x8E833, offset: 0x2BA7DD, size: 0x8, addend: 0x0, symName: __ZN7gguf_kvC2IaEERKNSt3__112basic_stringIcNS1_11char_traitsIcEENS1_9allocatorIcEEEET_.cold.1, symObjAddr: 0x1A5B0, symBinAddr: 0x160140, symSize: 0x20 }
  - { offsetInCU: 0x8ECB6, offset: 0x2BAC60, size: 0x8, addend: 0x0, symName: __ZNKSt3__16vectorItNS_9allocatorItEEE20__throw_length_errorB8ue170006Ev, symObjAddr: 0xFF40, symBinAddr: 0xB8100, symSize: 0x10 }
  - { offsetInCU: 0x8ECE0, offset: 0x2BAC8A, size: 0x8, addend: 0x0, symName: __ZNSt3__16vectorI7gguf_kvNS_9allocatorIS1_EEE24__emplace_back_slow_pathIJRKNS_12basic_stringIcNS_11char_traitsIcEENS2_IcEEEERNS0_ItNS2_ItEEEEEEEvDpOT_, symObjAddr: 0xFF50, symBinAddr: 0xB8110, symSize: 0x2B0 }
  - { offsetInCU: 0x8ECEB, offset: 0x2BAC95, size: 0x8, addend: 0x0, symName: __ZN7gguf_kvC2ItEERKNSt3__112basic_stringIcNS1_11char_traitsIcEENS1_9allocatorIcEEEERKNS1_6vectorIT_NS5_ISB_EEEE.cold.1, symObjAddr: 0x1A5D0, symBinAddr: 0x160160, symSize: 0x20 }
  - { offsetInCU: 0x8EDFE, offset: 0x2BADA8, size: 0x8, addend: 0x0, symName: __ZN7gguf_kvC2ItEERKNSt3__112basic_stringIcNS1_11char_traitsIcEENS1_9allocatorIcEEEET_.cold.1, symObjAddr: 0x1A5F0, symBinAddr: 0x160180, symSize: 0x20 }
  - { offsetInCU: 0x8F281, offset: 0x2BB22B, size: 0x8, addend: 0x0, symName: __ZNKSt3__16vectorIsNS_9allocatorIsEEE20__throw_length_errorB8ue170006Ev, symObjAddr: 0x109E0, symBinAddr: 0xB8BA0, symSize: 0x10 }
  - { offsetInCU: 0x8F2AB, offset: 0x2BB255, size: 0x8, addend: 0x0, symName: __ZNSt3__16vectorI7gguf_kvNS_9allocatorIS1_EEE24__emplace_back_slow_pathIJRKNS_12basic_stringIcNS_11char_traitsIcEENS2_IcEEEERNS0_IsNS2_IsEEEEEEEvDpOT_, symObjAddr: 0x109F0, symBinAddr: 0xB8BB0, symSize: 0x2B0 }
  - { offsetInCU: 0x8F2B6, offset: 0x2BB260, size: 0x8, addend: 0x0, symName: __ZN7gguf_kvC2IsEERKNSt3__112basic_stringIcNS1_11char_traitsIcEENS1_9allocatorIcEEEERKNS1_6vectorIT_NS5_ISB_EEEE.cold.1, symObjAddr: 0x1A610, symBinAddr: 0x1601A0, symSize: 0x20 }
  - { offsetInCU: 0x8F3C9, offset: 0x2BB373, size: 0x8, addend: 0x0, symName: __ZN7gguf_kvC2IsEERKNSt3__112basic_stringIcNS1_11char_traitsIcEENS1_9allocatorIcEEEET_.cold.1, symObjAddr: 0x1A630, symBinAddr: 0x1601C0, symSize: 0x20 }
  - { offsetInCU: 0x8F841, offset: 0x2BB7EB, size: 0x8, addend: 0x0, symName: __ZNSt3__16vectorI7gguf_kvNS_9allocatorIS1_EEE24__emplace_back_slow_pathIJRKNS_12basic_stringIcNS_11char_traitsIcEENS2_IcEEEERNS0_IjNS2_IjEEEEEEEvDpOT_, symObjAddr: 0x114B0, symBinAddr: 0xB9660, symSize: 0x2B0 }
  - { offsetInCU: 0x8F84C, offset: 0x2BB7F6, size: 0x8, addend: 0x0, symName: __ZN7gguf_kvC2IjEERKNSt3__112basic_stringIcNS1_11char_traitsIcEENS1_9allocatorIcEEEERKNS1_6vectorIT_NS5_ISB_EEEE.cold.1, symObjAddr: 0x1A650, symBinAddr: 0x1601E0, symSize: 0x20 }
  - { offsetInCU: 0x8F95F, offset: 0x2BB909, size: 0x8, addend: 0x0, symName: __ZN7gguf_kvC2IjEERKNSt3__112basic_stringIcNS1_11char_traitsIcEENS1_9allocatorIcEEEET_.cold.1, symObjAddr: 0x1A670, symBinAddr: 0x160200, symSize: 0x20 }
  - { offsetInCU: 0x8FDCB, offset: 0x2BBD75, size: 0x8, addend: 0x0, symName: __ZNSt3__16vectorI7gguf_kvNS_9allocatorIS1_EEE24__emplace_back_slow_pathIJRKNS_12basic_stringIcNS_11char_traitsIcEENS2_IcEEEERNS0_IiNS2_IiEEEEEEEvDpOT_, symObjAddr: 0x11F60, symBinAddr: 0xB9EC0, symSize: 0x2B0 }
  - { offsetInCU: 0x8FDD6, offset: 0x2BBD80, size: 0x8, addend: 0x0, symName: __ZN7gguf_kvC2IiEERKNSt3__112basic_stringIcNS1_11char_traitsIcEENS1_9allocatorIcEEEERKNS1_6vectorIT_NS5_ISB_EEEE.cold.1, symObjAddr: 0x1A690, symBinAddr: 0x160220, symSize: 0x20 }
  - { offsetInCU: 0x8FEE9, offset: 0x2BBE93, size: 0x8, addend: 0x0, symName: __ZN7gguf_kvC2IiEERKNSt3__112basic_stringIcNS1_11char_traitsIcEENS1_9allocatorIcEEEET_.cold.1, symObjAddr: 0x1A6B0, symBinAddr: 0x160240, symSize: 0x20 }
  - { offsetInCU: 0x90355, offset: 0x2BC2FF, size: 0x8, addend: 0x0, symName: __ZNSt3__16vectorI7gguf_kvNS_9allocatorIS1_EEE24__emplace_back_slow_pathIJRKNS_12basic_stringIcNS_11char_traitsIcEENS2_IcEEEERNS0_IfNS2_IfEEEEEEEvDpOT_, symObjAddr: 0x12A10, symBinAddr: 0xBA720, symSize: 0x2B0 }
  - { offsetInCU: 0x90360, offset: 0x2BC30A, size: 0x8, addend: 0x0, symName: __ZN7gguf_kvC2IfEERKNSt3__112basic_stringIcNS1_11char_traitsIcEENS1_9allocatorIcEEEERKNS1_6vectorIT_NS5_ISB_EEEE.cold.1, symObjAddr: 0x1A6D0, symBinAddr: 0x160260, symSize: 0x20 }
  - { offsetInCU: 0x90473, offset: 0x2BC41D, size: 0x8, addend: 0x0, symName: __ZN7gguf_kvC2IfEERKNSt3__112basic_stringIcNS1_11char_traitsIcEENS1_9allocatorIcEEEET_.cold.1, symObjAddr: 0x1A6F0, symBinAddr: 0x160280, symSize: 0x20 }
  - { offsetInCU: 0x90770, offset: 0x2BC71A, size: 0x8, addend: 0x0, symName: __ZNSt3__16vectorIbNS_9allocatorIbEEE7reserveEm, symObjAddr: 0x13520, symBinAddr: 0xBB230, symSize: 0x140 }
  - { offsetInCU: 0x90BB7, offset: 0x2BCB61, size: 0x8, addend: 0x0, symName: __ZNKSt3__16vectorIbNS_9allocatorIbEEE20__throw_length_errorB8ue170006Ev, symObjAddr: 0x13660, symBinAddr: 0xBB370, symSize: 0x10 }
  - { offsetInCU: 0x90BE1, offset: 0x2BCB8B, size: 0x8, addend: 0x0, symName: __ZNSt3__16vectorI7gguf_kvNS_9allocatorIS1_EEE24__emplace_back_slow_pathIJRKNS_12basic_stringIcNS_11char_traitsIcEENS2_IcEEEERNS0_IbNS2_IbEEEEEEEvDpOT_, symObjAddr: 0x13670, symBinAddr: 0xBB380, symSize: 0x2B0 }
  - { offsetInCU: 0x90E05, offset: 0x2BCDAF, size: 0x8, addend: 0x0, symName: __ZN7gguf_kvC2IbEERKNSt3__112basic_stringIcNS1_11char_traitsIcEENS1_9allocatorIcEEEERKNS1_6vectorIT_NS5_ISB_EEEE.cold.1, symObjAddr: 0x1A710, symBinAddr: 0x1602A0, symSize: 0x20 }
  - { offsetInCU: 0x90F18, offset: 0x2BCEC2, size: 0x8, addend: 0x0, symName: __ZN7gguf_kvC2IbEERKNSt3__112basic_stringIcNS1_11char_traitsIcEENS1_9allocatorIcEEEET_.cold.1, symObjAddr: 0x1A730, symBinAddr: 0x1602C0, symSize: 0x20 }
  - { offsetInCU: 0x9108B, offset: 0x2BD035, size: 0x8, addend: 0x0, symName: __ZNSt3__16vectorINS_12basic_stringIcNS_11char_traitsIcEENS_9allocatorIcEEEENS4_IS6_EEE8__appendEm, symObjAddr: 0x14060, symBinAddr: 0xBBD70, symSize: 0x220 }
  - { offsetInCU: 0x91D6F, offset: 0x2BDD19, size: 0x8, addend: 0x0, symName: __ZNSt3__16vectorINS_12basic_stringIcNS_11char_traitsIcEENS_9allocatorIcEEEENS4_IS6_EEE18__assign_with_sizeB8ue170006IPS6_SA_EEvT_T0_l, symObjAddr: 0x14700, symBinAddr: 0xBC3A0, symSize: 0x250 }
  - { offsetInCU: 0x928D2, offset: 0x2BE87C, size: 0x8, addend: 0x0, symName: __ZN7gguf_kvC2ERKNSt3__112basic_stringIcNS0_11char_traitsIcEENS0_9allocatorIcEEEERKNS0_6vectorIS6_NS4_IS6_EEEE.cold.1, symObjAddr: 0x1A750, symBinAddr: 0x1602E0, symSize: 0x20 }
  - { offsetInCU: 0x92BB2, offset: 0x2BEB5C, size: 0x8, addend: 0x0, symName: __ZNSt3__128__exception_guard_exceptionsINS_29_AllocatorDestroyRangeReverseINS_9allocatorINS_12basic_stringIcNS_11char_traitsIcEENS2_IcEEEEEEPS7_EEED1B8ue170006Ev, symObjAddr: 0x14A60, symBinAddr: 0xBC700, symSize: 0x50 }
  - { offsetInCU: 0x9358F, offset: 0x2BF539, size: 0x8, addend: 0x0, symName: __ZN7gguf_kvC2ERKNSt3__112basic_stringIcNS0_11char_traitsIcEENS0_9allocatorIcEEEES8_.cold.1, symObjAddr: 0x1A770, symBinAddr: 0x160300, symSize: 0x20 }
  - { offsetInCU: 0x93B4D, offset: 0x2BFAF7, size: 0x8, addend: 0x0, symName: __ZNKSt3__16vectorIyNS_9allocatorIyEEE20__throw_length_errorB8ue170006Ev, symObjAddr: 0x15300, symBinAddr: 0xBCD70, symSize: 0x10 }
  - { offsetInCU: 0x93B77, offset: 0x2BFB21, size: 0x8, addend: 0x0, symName: __ZNSt3__16vectorI7gguf_kvNS_9allocatorIS1_EEE24__emplace_back_slow_pathIJRKNS_12basic_stringIcNS_11char_traitsIcEENS2_IcEEEERNS0_IyNS2_IyEEEEEEEvDpOT_, symObjAddr: 0x15310, symBinAddr: 0xBCD80, symSize: 0x2B0 }
  - { offsetInCU: 0x93B82, offset: 0x2BFB2C, size: 0x8, addend: 0x0, symName: __ZN7gguf_kvC2IyEERKNSt3__112basic_stringIcNS1_11char_traitsIcEENS1_9allocatorIcEEEERKNS1_6vectorIT_NS5_ISB_EEEE.cold.1, symObjAddr: 0x1A790, symBinAddr: 0x160320, symSize: 0x20 }
  - { offsetInCU: 0x93C95, offset: 0x2BFC3F, size: 0x8, addend: 0x0, symName: __ZN7gguf_kvC2IyEERKNSt3__112basic_stringIcNS1_11char_traitsIcEENS1_9allocatorIcEEEET_.cold.1, symObjAddr: 0x1A7B0, symBinAddr: 0x160340, symSize: 0x20 }
  - { offsetInCU: 0x94101, offset: 0x2C00AB, size: 0x8, addend: 0x0, symName: __ZNSt3__16vectorI7gguf_kvNS_9allocatorIS1_EEE24__emplace_back_slow_pathIJRKNS_12basic_stringIcNS_11char_traitsIcEENS2_IcEEEERNS0_IxNS2_IxEEEEEEEvDpOT_, symObjAddr: 0x15DD0, symBinAddr: 0xBD5F0, symSize: 0x2B0 }
  - { offsetInCU: 0x9410C, offset: 0x2C00B6, size: 0x8, addend: 0x0, symName: __ZN7gguf_kvC2IxEERKNSt3__112basic_stringIcNS1_11char_traitsIcEENS1_9allocatorIcEEEERKNS1_6vectorIT_NS5_ISB_EEEE.cold.1, symObjAddr: 0x1A7D0, symBinAddr: 0x160360, symSize: 0x20 }
  - { offsetInCU: 0x9421F, offset: 0x2C01C9, size: 0x8, addend: 0x0, symName: __ZN7gguf_kvC2IxEERKNSt3__112basic_stringIcNS1_11char_traitsIcEENS1_9allocatorIcEEEET_.cold.1, symObjAddr: 0x1A7F0, symBinAddr: 0x160380, symSize: 0x20 }
  - { offsetInCU: 0x94697, offset: 0x2C0641, size: 0x8, addend: 0x0, symName: __ZNSt3__16vectorI7gguf_kvNS_9allocatorIS1_EEE24__emplace_back_slow_pathIJRKNS_12basic_stringIcNS_11char_traitsIcEENS2_IcEEEERNS0_IdNS2_IdEEEEEEEvDpOT_, symObjAddr: 0x16890, symBinAddr: 0xBE0A0, symSize: 0x2B0 }
  - { offsetInCU: 0x946A2, offset: 0x2C064C, size: 0x8, addend: 0x0, symName: __ZN7gguf_kvC2IdEERKNSt3__112basic_stringIcNS1_11char_traitsIcEENS1_9allocatorIcEEEERKNS1_6vectorIT_NS5_ISB_EEEE.cold.1, symObjAddr: 0x1A810, symBinAddr: 0x1603A0, symSize: 0x20 }
  - { offsetInCU: 0x947B5, offset: 0x2C075F, size: 0x8, addend: 0x0, symName: __ZN7gguf_kvC2IdEERKNSt3__112basic_stringIcNS1_11char_traitsIcEENS1_9allocatorIcEEEET_.cold.1, symObjAddr: 0x1A830, symBinAddr: 0x1603C0, symSize: 0x15 }
  - { offsetInCU: 0x26, offset: 0x2C0A0D, size: 0x8, addend: 0x0, symName: _ggml_compute_forward_add_non_quantized, symObjAddr: 0x0, symBinAddr: 0xC1DF0, symSize: 0x4930 }
  - { offsetInCU: 0x4BDA, offset: 0x2C55C1, size: 0x8, addend: 0x0, symName: _ggml_compute_forward_add_non_quantized, symObjAddr: 0x0, symBinAddr: 0xC1DF0, symSize: 0x4930 }
  - { offsetInCU: 0x6BD9, offset: 0x2C75C0, size: 0x8, addend: 0x0, symName: _ggml_compute_forward_sub, symObjAddr: 0x4930, symBinAddr: 0xC6720, symSize: 0x4930 }
  - { offsetInCU: 0x86AC, offset: 0x2C9093, size: 0x8, addend: 0x0, symName: _ggml_compute_forward_sub, symObjAddr: 0x4930, symBinAddr: 0xC6720, symSize: 0x4930 }
  - { offsetInCU: 0xA6AB, offset: 0x2CB092, size: 0x8, addend: 0x0, symName: _ggml_compute_forward_mul, symObjAddr: 0x9260, symBinAddr: 0xCB050, symSize: 0x4930 }
  - { offsetInCU: 0xC10E, offset: 0x2CCAF5, size: 0x8, addend: 0x0, symName: _ggml_compute_forward_mul, symObjAddr: 0x9260, symBinAddr: 0xCB050, symSize: 0x4930 }
  - { offsetInCU: 0xE10D, offset: 0x2CEAF4, size: 0x8, addend: 0x0, symName: _ggml_compute_forward_div, symObjAddr: 0xDB90, symBinAddr: 0xCF980, symSize: 0x4F81 }
  - { offsetInCU: 0xFB70, offset: 0x2D0557, size: 0x8, addend: 0x0, symName: _ggml_compute_forward_div, symObjAddr: 0xDB90, symBinAddr: 0xCF980, symSize: 0x4F81 }
  - { offsetInCU: 0x26, offset: 0x2D2573, size: 0x8, addend: 0x0, symName: _ggml_get_type_traits_cpu, symObjAddr: 0x0, symBinAddr: 0xD4910, symSize: 0x20 }
  - { offsetInCU: 0x42, offset: 0x2D258F, size: 0x8, addend: 0x0, symName: _ggml_cpu_init, symObjAddr: 0x3370, symBinAddr: 0xD7C80, symSize: 0x220 }
  - { offsetInCU: 0x66, offset: 0x2D25B3, size: 0x8, addend: 0x0, symName: _ggml_cpu_init.is_first_call, symObjAddr: 0x26ADE, symBinAddr: 0x211DE8, symSize: 0x0 }
  - { offsetInCU: 0x442, offset: 0x2D298F, size: 0x8, addend: 0x0, symName: _type_traits_cpu, symObjAddr: 0x6EC0, symBinAddr: 0x1A1240, symSize: 0x0 }
  - { offsetInCU: 0x1989, offset: 0x2D3ED6, size: 0x8, addend: 0x0, symName: _ggml_get_type_traits_cpu, symObjAddr: 0x0, symBinAddr: 0xD4910, symSize: 0x20 }
  - { offsetInCU: 0x19BE, offset: 0x2D3F0B, size: 0x8, addend: 0x0, symName: _ggml_barrier, symObjAddr: 0x20, symBinAddr: 0xD4930, symSize: 0x60 }
  - { offsetInCU: 0x1A0F, offset: 0x2D3F5C, size: 0x8, addend: 0x0, symName: _ggml_threadpool_chunk_set, symObjAddr: 0x80, symBinAddr: 0xD4990, symSize: 0x10 }
  - { offsetInCU: 0x1A45, offset: 0x2D3F92, size: 0x8, addend: 0x0, symName: _ggml_threadpool_chunk_add, symObjAddr: 0x90, symBinAddr: 0xD49A0, symSize: 0x10 }
  - { offsetInCU: 0x1A7F, offset: 0x2D3FCC, size: 0x8, addend: 0x0, symName: _ggml_numa_init, symObjAddr: 0xA0, symBinAddr: 0xD49B0, symSize: 0x10 }
  - { offsetInCU: 0x1AA6, offset: 0x2D3FF3, size: 0x8, addend: 0x0, symName: _ggml_is_numa, symObjAddr: 0xB0, symBinAddr: 0xD49C0, symSize: 0x10 }
  - { offsetInCU: 0x1AC1, offset: 0x2D400E, size: 0x8, addend: 0x0, symName: _ggml_new_i32, symObjAddr: 0xC0, symBinAddr: 0xD49D0, symSize: 0x60 }
  - { offsetInCU: 0x1BB5, offset: 0x2D4102, size: 0x8, addend: 0x0, symName: _ggml_set_i32, symObjAddr: 0x120, symBinAddr: 0xD4A30, symSize: 0x840 }
  - { offsetInCU: 0x20A5, offset: 0x2D45F2, size: 0x8, addend: 0x0, symName: _ggml_new_f32, symObjAddr: 0x960, symBinAddr: 0xD5270, symSize: 0x60 }
  - { offsetInCU: 0x215C, offset: 0x2D46A9, size: 0x8, addend: 0x0, symName: _ggml_set_f32, symObjAddr: 0x9C0, symBinAddr: 0xD52D0, symSize: 0x860 }
  - { offsetInCU: 0x24AB, offset: 0x2D49F8, size: 0x8, addend: 0x0, symName: _ggml_get_i32_1d, symObjAddr: 0x1220, symBinAddr: 0xD5B30, symSize: 0x2C0 }
  - { offsetInCU: 0x26A0, offset: 0x2D4BED, size: 0x8, addend: 0x0, symName: _ggml_get_i32_nd, symObjAddr: 0x14E0, symBinAddr: 0xD5DF0, symSize: 0x120 }
  - { offsetInCU: 0x28BD, offset: 0x2D4E0A, size: 0x8, addend: 0x0, symName: _ggml_set_i32_1d, symObjAddr: 0x1600, symBinAddr: 0xD5F10, symSize: 0x370 }
  - { offsetInCU: 0x2B71, offset: 0x2D50BE, size: 0x8, addend: 0x0, symName: _ggml_set_i32_nd, symObjAddr: 0x1970, symBinAddr: 0xD6280, symSize: 0x1D0 }
  - { offsetInCU: 0x2D41, offset: 0x2D528E, size: 0x8, addend: 0x0, symName: _ggml_get_f32_1d, symObjAddr: 0x1B40, symBinAddr: 0xD6450, symSize: 0x1C0 }
  - { offsetInCU: 0x2E61, offset: 0x2D53AE, size: 0x8, addend: 0x0, symName: _ggml_get_f32_nd, symObjAddr: 0x1D00, symBinAddr: 0xD6610, symSize: 0x120 }
  - { offsetInCU: 0x2F31, offset: 0x2D547E, size: 0x8, addend: 0x0, symName: _ggml_set_f32_1d, symObjAddr: 0x1E20, symBinAddr: 0xD6730, symSize: 0x270 }
  - { offsetInCU: 0x316D, offset: 0x2D56BA, size: 0x8, addend: 0x0, symName: _ggml_set_f32_nd, symObjAddr: 0x2090, symBinAddr: 0xD69A0, symSize: 0x1D0 }
  - { offsetInCU: 0x333E, offset: 0x2D588B, size: 0x8, addend: 0x0, symName: _ggml_threadpool_free, symObjAddr: 0x2260, symBinAddr: 0xD6B70, symSize: 0x100 }
  - { offsetInCU: 0x354A, offset: 0x2D5A97, size: 0x8, addend: 0x0, symName: _ggml_threadpool_pause, symObjAddr: 0x2360, symBinAddr: 0xD6C70, symSize: 0x40 }
  - { offsetInCU: 0x35EE, offset: 0x2D5B3B, size: 0x8, addend: 0x0, symName: _ggml_threadpool_resume, symObjAddr: 0x23A0, symBinAddr: 0xD6CB0, symSize: 0x40 }
  - { offsetInCU: 0x3890, offset: 0x2D5DDD, size: 0x8, addend: 0x0, symName: _ggml_graph_plan, symObjAddr: 0x23E0, symBinAddr: 0xD6CF0, symSize: 0x8F0 }
  - { offsetInCU: 0x3DFF, offset: 0x2D634C, size: 0x8, addend: 0x0, symName: _ggml_threadpool_new, symObjAddr: 0x2CD0, symBinAddr: 0xD75E0, symSize: 0x10 }
  - { offsetInCU: 0x3E4D, offset: 0x2D639A, size: 0x8, addend: 0x0, symName: _ggml_threadpool_new_impl, symObjAddr: 0x2CE0, symBinAddr: 0xD75F0, symSize: 0x3E0 }
  - { offsetInCU: 0x43D3, offset: 0x2D6920, size: 0x8, addend: 0x0, symName: _ggml_graph_compute, symObjAddr: 0x30C0, symBinAddr: 0xD79D0, symSize: 0x2B0 }
  - { offsetInCU: 0x46C0, offset: 0x2D6C0D, size: 0x8, addend: 0x0, symName: _ggml_graph_compute_thread, symObjAddr: 0x3590, symBinAddr: 0xD7EA0, symSize: 0x2CA0 }
  - { offsetInCU: 0x753A, offset: 0x2D9A87, size: 0x8, addend: 0x0, symName: _ggml_graph_compute_with_ctx, symObjAddr: 0x6230, symBinAddr: 0xDAB40, symSize: 0x60 }
  - { offsetInCU: 0x7613, offset: 0x2D9B60, size: 0x8, addend: 0x0, symName: _ggml_cpu_fp32_to_fp16, symObjAddr: 0x6290, symBinAddr: 0xDABA0, symSize: 0x200 }
  - { offsetInCU: 0x7765, offset: 0x2D9CB2, size: 0x8, addend: 0x0, symName: _ggml_cpu_fp16_to_fp32, symObjAddr: 0x6490, symBinAddr: 0xDADA0, symSize: 0xC0 }
  - { offsetInCU: 0x77CF, offset: 0x2D9D1C, size: 0x8, addend: 0x0, symName: _ggml_cpu_fp32_to_bf16, symObjAddr: 0x6550, symBinAddr: 0xDAE60, symSize: 0x190 }
  - { offsetInCU: 0x783E, offset: 0x2D9D8B, size: 0x8, addend: 0x0, symName: _ggml_cpu_bf16_to_fp32, symObjAddr: 0x66E0, symBinAddr: 0xDAFF0, symSize: 0x160 }
  - { offsetInCU: 0x78AD, offset: 0x2D9DFA, size: 0x8, addend: 0x0, symName: _ggml_cpu_has_avx, symObjAddr: 0x6840, symBinAddr: 0xDB150, symSize: 0x10 }
  - { offsetInCU: 0x78C8, offset: 0x2D9E15, size: 0x8, addend: 0x0, symName: _ggml_cpu_has_avx_vnni, symObjAddr: 0x6850, symBinAddr: 0xDB160, symSize: 0x10 }
  - { offsetInCU: 0x78E3, offset: 0x2D9E30, size: 0x8, addend: 0x0, symName: _ggml_cpu_has_avx2, symObjAddr: 0x6860, symBinAddr: 0xDB170, symSize: 0x10 }
  - { offsetInCU: 0x78FE, offset: 0x2D9E4B, size: 0x8, addend: 0x0, symName: _ggml_cpu_has_avx512, symObjAddr: 0x6870, symBinAddr: 0xDB180, symSize: 0x10 }
  - { offsetInCU: 0x7919, offset: 0x2D9E66, size: 0x8, addend: 0x0, symName: _ggml_cpu_has_avx512_vbmi, symObjAddr: 0x6880, symBinAddr: 0xDB190, symSize: 0x10 }
  - { offsetInCU: 0x7934, offset: 0x2D9E81, size: 0x8, addend: 0x0, symName: _ggml_cpu_has_avx512_vnni, symObjAddr: 0x6890, symBinAddr: 0xDB1A0, symSize: 0x10 }
  - { offsetInCU: 0x794F, offset: 0x2D9E9C, size: 0x8, addend: 0x0, symName: _ggml_cpu_has_avx512_bf16, symObjAddr: 0x68A0, symBinAddr: 0xDB1B0, symSize: 0x10 }
  - { offsetInCU: 0x796A, offset: 0x2D9EB7, size: 0x8, addend: 0x0, symName: _ggml_cpu_has_amx_int8, symObjAddr: 0x68B0, symBinAddr: 0xDB1C0, symSize: 0x10 }
  - { offsetInCU: 0x7985, offset: 0x2D9ED2, size: 0x8, addend: 0x0, symName: _ggml_cpu_has_bmi2, symObjAddr: 0x68C0, symBinAddr: 0xDB1D0, symSize: 0x10 }
  - { offsetInCU: 0x79A0, offset: 0x2D9EED, size: 0x8, addend: 0x0, symName: _ggml_cpu_has_fma, symObjAddr: 0x68D0, symBinAddr: 0xDB1E0, symSize: 0x10 }
  - { offsetInCU: 0x79BB, offset: 0x2D9F08, size: 0x8, addend: 0x0, symName: _ggml_cpu_has_arm_fma, symObjAddr: 0x68E0, symBinAddr: 0xDB1F0, symSize: 0x10 }
  - { offsetInCU: 0x79D6, offset: 0x2D9F23, size: 0x8, addend: 0x0, symName: _ggml_cpu_has_riscv_v, symObjAddr: 0x68F0, symBinAddr: 0xDB200, symSize: 0x10 }
  - { offsetInCU: 0x79F1, offset: 0x2D9F3E, size: 0x8, addend: 0x0, symName: _ggml_cpu_has_f16c, symObjAddr: 0x6900, symBinAddr: 0xDB210, symSize: 0x10 }
  - { offsetInCU: 0x7A0C, offset: 0x2D9F59, size: 0x8, addend: 0x0, symName: _ggml_cpu_has_fp16_va, symObjAddr: 0x6910, symBinAddr: 0xDB220, symSize: 0x10 }
  - { offsetInCU: 0x7A27, offset: 0x2D9F74, size: 0x8, addend: 0x0, symName: _ggml_cpu_has_wasm_simd, symObjAddr: 0x6920, symBinAddr: 0xDB230, symSize: 0x10 }
  - { offsetInCU: 0x7A42, offset: 0x2D9F8F, size: 0x8, addend: 0x0, symName: _ggml_cpu_has_llamafile, symObjAddr: 0x6930, symBinAddr: 0xDB240, symSize: 0x10 }
  - { offsetInCU: 0x7A5D, offset: 0x2D9FAA, size: 0x8, addend: 0x0, symName: _ggml_cpu_has_sse3, symObjAddr: 0x6940, symBinAddr: 0xDB250, symSize: 0x10 }
  - { offsetInCU: 0x7A78, offset: 0x2D9FC5, size: 0x8, addend: 0x0, symName: _ggml_cpu_has_ssse3, symObjAddr: 0x6950, symBinAddr: 0xDB260, symSize: 0x10 }
  - { offsetInCU: 0x7A93, offset: 0x2D9FE0, size: 0x8, addend: 0x0, symName: _ggml_cpu_has_vsx, symObjAddr: 0x6960, symBinAddr: 0xDB270, symSize: 0x10 }
  - { offsetInCU: 0x7AAE, offset: 0x2D9FFB, size: 0x8, addend: 0x0, symName: _ggml_cpu_has_vxe, symObjAddr: 0x6970, symBinAddr: 0xDB280, symSize: 0x10 }
  - { offsetInCU: 0x7AC9, offset: 0x2DA016, size: 0x8, addend: 0x0, symName: _ggml_cpu_has_neon, symObjAddr: 0x6980, symBinAddr: 0xDB290, symSize: 0x10 }
  - { offsetInCU: 0x7AE4, offset: 0x2DA031, size: 0x8, addend: 0x0, symName: _ggml_cpu_has_dotprod, symObjAddr: 0x6990, symBinAddr: 0xDB2A0, symSize: 0x10 }
  - { offsetInCU: 0x7AFF, offset: 0x2DA04C, size: 0x8, addend: 0x0, symName: _ggml_cpu_has_sve, symObjAddr: 0x69A0, symBinAddr: 0xDB2B0, symSize: 0x10 }
  - { offsetInCU: 0x7B1A, offset: 0x2DA067, size: 0x8, addend: 0x0, symName: _ggml_cpu_has_matmul_int8, symObjAddr: 0x69B0, symBinAddr: 0xDB2C0, symSize: 0x10 }
  - { offsetInCU: 0x7B35, offset: 0x2DA082, size: 0x8, addend: 0x0, symName: _ggml_cpu_get_sve_cnt, symObjAddr: 0x69C0, symBinAddr: 0xDB2D0, symSize: 0x10 }
  - { offsetInCU: 0x7B50, offset: 0x2DA09D, size: 0x8, addend: 0x0, symName: _ggml_cpu_has_sme, symObjAddr: 0x69D0, symBinAddr: 0xDB2E0, symSize: 0x10 }
  - { offsetInCU: 0x7C77, offset: 0x2DA1C4, size: 0x8, addend: 0x0, symName: _ggml_graph_compute_secondary_thread, symObjAddr: 0x69E0, symBinAddr: 0xDB2F0, symSize: 0x2CC }
  - { offsetInCU: 0x26, offset: 0x2DA504, size: 0x8, addend: 0x0, symName: __Z39ggml_backend_cpu_get_extra_buffers_typev, symObjAddr: 0x0, symBinAddr: 0xDB5C0, symSize: 0x80 }
  - { offsetInCU: 0x34, offset: 0x2DA512, size: 0x8, addend: 0x0, symName: __Z39ggml_backend_cpu_get_extra_buffers_typev, symObjAddr: 0x0, symBinAddr: 0xDB5C0, symSize: 0x80 }
  - { offsetInCU: 0x54, offset: 0x2DA532, size: 0x8, addend: 0x0, symName: __ZZ39ggml_backend_cpu_get_extra_buffers_typevE5bufts, symObjAddr: 0x51C00, symBinAddr: 0x211DF0, symSize: 0x0 }
  - { offsetInCU: 0x6B0E, offset: 0x2E0FEC, size: 0x8, addend: 0x0, symName: _ggml_backend_cpu_reg, symObjAddr: 0x5E0, symBinAddr: 0xDBBA0, symSize: 0x20 }
  - { offsetInCU: 0x6B2F, offset: 0x2E100D, size: 0x8, addend: 0x0, symName: __ZZ20ggml_backend_cpu_regE20ggml_backend_cpu_reg, symObjAddr: 0x4060, symBinAddr: 0x1A5460, symSize: 0x0 }
  - { offsetInCU: 0x6B54, offset: 0x2E1032, size: 0x8, addend: 0x0, symName: __ZL18ggml_backend_cpu_i, symObjAddr: 0x3D00, symBinAddr: 0x1A1720, symSize: 0x0 }
  - { offsetInCU: 0x6B66, offset: 0x2E1044, size: 0x8, addend: 0x0, symName: __ZL31ggml_backend_cpu_reg_get_deviceP16ggml_backend_regm, symObjAddr: 0x770, symBinAddr: 0xDBD30, symSize: 0x160 }
  - { offsetInCU: 0x6B92, offset: 0x2E1070, size: 0x8, addend: 0x0, symName: __ZZL31ggml_backend_cpu_reg_get_deviceP16ggml_backend_regmE3ctx, symObjAddr: 0x51C20, symBinAddr: 0x211E10, symSize: 0x0 }
  - { offsetInCU: 0x6BA9, offset: 0x2E1087, size: 0x8, addend: 0x0, symName: __ZZL31ggml_backend_cpu_reg_get_deviceP16ggml_backend_regmE23ggml_backend_cpu_device, symObjAddr: 0x51C40, symBinAddr: 0x211E30, symSize: 0x0 }
  - { offsetInCU: 0x6D3B, offset: 0x2E1219, size: 0x8, addend: 0x0, symName: __ZL25ggml_backend_cpu_device_i, symObjAddr: 0x3D68, symBinAddr: 0x1A1788, symSize: 0x0 }
  - { offsetInCU: 0x6D4E, offset: 0x2E122C, size: 0x8, addend: 0x0, symName: __ZL29ggml_backend_cpu_get_featuresP16ggml_backend_reg, symObjAddr: 0x1450, symBinAddr: 0xDC950, symSize: 0x80 }
  - { offsetInCU: 0x6D7A, offset: 0x2E1258, size: 0x8, addend: 0x0, symName: __ZZL29ggml_backend_cpu_get_featuresP16ggml_backend_regE8features, symObjAddr: 0x51CD0, symBinAddr: 0x211EC0, symSize: 0x0 }
  - { offsetInCU: 0x6F92, offset: 0x2E1470, size: 0x8, addend: 0x0, symName: '__ZZL29ggml_backend_cpu_get_featuresP16ggml_backend_regENK3$_1clEv', symObjAddr: 0x14D0, symBinAddr: 0xDC9D0, symSize: 0x2470 }
  - { offsetInCU: 0x6FBB, offset: 0x2E1499, size: 0x8, addend: 0x0, symName: '__ZZZL29ggml_backend_cpu_get_featuresP16ggml_backend_regENK3$_1clEvE7sve_cnt', symObjAddr: 0x51CF0, symBinAddr: 0x211EE0, symSize: 0x0 }
  - { offsetInCU: 0x12ADE, offset: 0x2ECFBC, size: 0x8, addend: 0x0, symName: '__ZZ39ggml_backend_cpu_get_extra_buffers_typevENK3$_0clEv', symObjAddr: 0x80, symBinAddr: 0xDB640, symSize: 0x460 }
  - { offsetInCU: 0x13C1B, offset: 0x2EE0F9, size: 0x8, addend: 0x0, symName: __ZNKSt3__16vectorIP24ggml_backend_buffer_typeNS_9allocatorIS2_EEE20__throw_length_errorB8ue170006Ev, symObjAddr: 0xA30, symBinAddr: 0xDBFF0, symSize: 0x10 }
  - { offsetInCU: 0x13C50, offset: 0x2EE12E, size: 0x8, addend: 0x0, symName: __ZNSt3__16vectorIP24ggml_backend_buffer_typeNS_9allocatorIS2_EEED1B8ue170006Ev, symObjAddr: 0x4E0, symBinAddr: 0xDBAA0, symSize: 0x20 }
  - { offsetInCU: 0x13DCB, offset: 0x2EE2A9, size: 0x8, addend: 0x0, symName: _ggml_backend_cpu_init, symObjAddr: 0x500, symBinAddr: 0xDBAC0, symSize: 0xE0 }
  - { offsetInCU: 0x13E59, offset: 0x2EE337, size: 0x8, addend: 0x0, symName: _ggml_backend_is_cpu, symObjAddr: 0x600, symBinAddr: 0xDBBC0, symSize: 0x20 }
  - { offsetInCU: 0x13EB9, offset: 0x2EE397, size: 0x8, addend: 0x0, symName: _ggml_backend_cpu_set_n_threads, symObjAddr: 0x620, symBinAddr: 0xDBBE0, symSize: 0x50 }
  - { offsetInCU: 0x13F30, offset: 0x2EE40E, size: 0x8, addend: 0x0, symName: _ggml_backend_cpu_set_threadpool, symObjAddr: 0x670, symBinAddr: 0xDBC30, symSize: 0x70 }
  - { offsetInCU: 0x13F5F, offset: 0x2EE43D, size: 0x8, addend: 0x0, symName: _ggml_backend_cpu_set_threadpool, symObjAddr: 0x670, symBinAddr: 0xDBC30, symSize: 0x70 }
  - { offsetInCU: 0x14006, offset: 0x2EE4E4, size: 0x8, addend: 0x0, symName: _ggml_backend_cpu_set_abort_callback, symObjAddr: 0x6E0, symBinAddr: 0xDBCA0, symSize: 0x70 }
  - { offsetInCU: 0x140A1, offset: 0x2EE57F, size: 0x8, addend: 0x0, symName: __ZL29ggml_backend_cpu_reg_get_nameP16ggml_backend_reg, symObjAddr: 0x750, symBinAddr: 0xDBD10, symSize: 0x10 }
  - { offsetInCU: 0x140CD, offset: 0x2EE5AB, size: 0x8, addend: 0x0, symName: __ZL37ggml_backend_cpu_reg_get_device_countP16ggml_backend_reg, symObjAddr: 0x760, symBinAddr: 0xDBD20, symSize: 0x10 }
  - { offsetInCU: 0x14113, offset: 0x2EE5F1, size: 0x8, addend: 0x0, symName: __ZN31ggml_backend_cpu_device_contextC2Ev, symObjAddr: 0x1340, symBinAddr: 0xDC840, symSize: 0x90 }
  - { offsetInCU: 0x14530, offset: 0x2EEA0E, size: 0x8, addend: 0x0, symName: __ZL33ggml_backend_cpu_get_proc_addressP16ggml_backend_regPKc, symObjAddr: 0x8D0, symBinAddr: 0xDBE90, symSize: 0x160 }
  - { offsetInCU: 0x145D5, offset: 0x2EEAB3, size: 0x8, addend: 0x0, symName: __ZL25ggml_backend_cpu_get_nameP12ggml_backend, symObjAddr: 0xB00, symBinAddr: 0xDC000, symSize: 0x10 }
  - { offsetInCU: 0x14600, offset: 0x2EEADE, size: 0x8, addend: 0x0, symName: __ZL21ggml_backend_cpu_freeP12ggml_backend, symObjAddr: 0xB10, symBinAddr: 0xDC010, symSize: 0x30 }
  - { offsetInCU: 0x1463B, offset: 0x2EEB19, size: 0x8, addend: 0x0, symName: __ZL34ggml_backend_cpu_graph_plan_createP12ggml_backendPK11ggml_cgraph, symObjAddr: 0xB40, symBinAddr: 0xDC040, symSize: 0xA0 }
  - { offsetInCU: 0x146D4, offset: 0x2EEBB2, size: 0x8, addend: 0x0, symName: __ZL32ggml_backend_cpu_graph_plan_freeP12ggml_backendPv, symObjAddr: 0xBE0, symBinAddr: 0xDC0E0, symSize: 0x30 }
  - { offsetInCU: 0x1471B, offset: 0x2EEBF9, size: 0x8, addend: 0x0, symName: __ZL35ggml_backend_cpu_graph_plan_computeP12ggml_backendPv, symObjAddr: 0xC10, symBinAddr: 0xDC110, symSize: 0x10 }
  - { offsetInCU: 0x14795, offset: 0x2EEC73, size: 0x8, addend: 0x0, symName: __ZL30ggml_backend_cpu_graph_computeP12ggml_backendP11ggml_cgraph, symObjAddr: 0xC20, symBinAddr: 0xDC120, symSize: 0x90 }
  - { offsetInCU: 0x1491A, offset: 0x2EEDF8, size: 0x8, addend: 0x0, symName: __ZN31ggml_backend_cpu_device_contextD1Ev, symObjAddr: 0xCB0, symBinAddr: 0xDC1B0, symSize: 0x20 }
  - { offsetInCU: 0x14A71, offset: 0x2EEF4F, size: 0x8, addend: 0x0, symName: __ZL32ggml_backend_cpu_device_get_nameP19ggml_backend_device, symObjAddr: 0xCD0, symBinAddr: 0xDC1D0, symSize: 0x10 }
  - { offsetInCU: 0x14B0B, offset: 0x2EEFE9, size: 0x8, addend: 0x0, symName: __ZL39ggml_backend_cpu_device_get_descriptionP19ggml_backend_device, symObjAddr: 0xCE0, symBinAddr: 0xDC1E0, symSize: 0x20 }
  - { offsetInCU: 0x14BDA, offset: 0x2EF0B8, size: 0x8, addend: 0x0, symName: __ZL34ggml_backend_cpu_device_get_memoryP19ggml_backend_devicePmS1_, symObjAddr: 0xD00, symBinAddr: 0xDC200, symSize: 0x40 }
  - { offsetInCU: 0x14C5C, offset: 0x2EF13A, size: 0x8, addend: 0x0, symName: __ZL32ggml_backend_cpu_device_get_typeP19ggml_backend_device, symObjAddr: 0xD40, symBinAddr: 0xDC240, symSize: 0x10 }
  - { offsetInCU: 0x14D02, offset: 0x2EF1E0, size: 0x8, addend: 0x0, symName: __ZL33ggml_backend_cpu_device_get_propsP19ggml_backend_deviceP22ggml_backend_dev_props, symObjAddr: 0xD50, symBinAddr: 0xDC250, symSize: 0x70 }
  - { offsetInCU: 0x14EC5, offset: 0x2EF3A3, size: 0x8, addend: 0x0, symName: __ZL36ggml_backend_cpu_device_init_backendP19ggml_backend_devicePKc, symObjAddr: 0xDC0, symBinAddr: 0xDC2C0, symSize: 0xE0 }
  - { offsetInCU: 0x14F66, offset: 0x2EF444, size: 0x8, addend: 0x0, symName: __ZL39ggml_backend_cpu_device_get_buffer_typeP19ggml_backend_device, symObjAddr: 0xEA0, symBinAddr: 0xDC3A0, symSize: 0x10 }
  - { offsetInCU: 0x14FAD, offset: 0x2EF48B, size: 0x8, addend: 0x0, symName: __ZL44ggml_backend_cpu_device_buffer_from_host_ptrP19ggml_backend_devicePvmm, symObjAddr: 0xEB0, symBinAddr: 0xDC3B0, symSize: 0x10 }
  - { offsetInCU: 0x1509F, offset: 0x2EF57D, size: 0x8, addend: 0x0, symName: __ZL35ggml_backend_cpu_device_supports_opP19ggml_backend_devicePK11ggml_tensor, symObjAddr: 0xEC0, symBinAddr: 0xDC3C0, symSize: 0x3B0 }
  - { offsetInCU: 0x15433, offset: 0x2EF911, size: 0x8, addend: 0x0, symName: __ZL37ggml_backend_cpu_device_supports_buftP19ggml_backend_deviceP24ggml_backend_buffer_type, symObjAddr: 0x1270, symBinAddr: 0xDC770, symSize: 0xD0 }
  - { offsetInCU: 0x15732, offset: 0x2EFC10, size: 0x8, addend: 0x0, symName: __ZL46ggml_backend_cpu_device_get_extra_buffers_typeP19ggml_backend_device, symObjAddr: 0x13D0, symBinAddr: 0xDC8D0, symSize: 0x80 }
  - { offsetInCU: 0x15DD4, offset: 0x2F02B2, size: 0x8, addend: 0x0, symName: __ZNKSt3__16vectorI20ggml_backend_featureNS_9allocatorIS1_EEE20__throw_length_errorB8ue170006Ev, symObjAddr: 0x3960, symBinAddr: 0xDEE60, symSize: 0x10 }
  - { offsetInCU: 0x15E09, offset: 0x2F02E7, size: 0x8, addend: 0x0, symName: __ZNSt3__16vectorI20ggml_backend_featureNS_9allocatorIS1_EEED1B8ue170006Ev, symObjAddr: 0x3940, symBinAddr: 0xDEE40, symSize: 0x20 }
  - { offsetInCU: 0x26, offset: 0x2F048C, size: 0x8, addend: 0x0, symName: _ggml_compute_forward_dup, symObjAddr: 0x0, symBinAddr: 0xDEE70, symSize: 0x77D0 }
  - { offsetInCU: 0x4716, offset: 0x2F4B7C, size: 0x8, addend: 0x0, symName: _ggml_compute_forward_dup, symObjAddr: 0x0, symBinAddr: 0xDEE70, symSize: 0x77D0 }
  - { offsetInCU: 0x6872, offset: 0x2F6CD8, size: 0x8, addend: 0x0, symName: _ggml_compute_forward_add, symObjAddr: 0x77D0, symBinAddr: 0xE6640, symSize: 0x6A0 }
  - { offsetInCU: 0x6CC8, offset: 0x2F712E, size: 0x8, addend: 0x0, symName: _ggml_compute_forward_add, symObjAddr: 0x77D0, symBinAddr: 0xE6640, symSize: 0x6A0 }
  - { offsetInCU: 0x7505, offset: 0x2F796B, size: 0x8, addend: 0x0, symName: _ggml_compute_forward_add1, symObjAddr: 0x7E70, symBinAddr: 0xE6CE0, symSize: 0x990 }
  - { offsetInCU: 0x7BA0, offset: 0x2F8006, size: 0x8, addend: 0x0, symName: __ZL35ggml_compute_forward_add1_bf16_bf16PK19ggml_compute_paramsP11ggml_tensor, symObjAddr: 0x9480, symBinAddr: 0xE82F0, symSize: 0x4F0 }
  - { offsetInCU: 0x7F6A, offset: 0x2F83D0, size: 0x8, addend: 0x0, symName: __ZL33ggml_compute_forward_add1_f16_f16PK19ggml_compute_paramsP11ggml_tensor, symObjAddr: 0x8800, symBinAddr: 0xE7670, symSize: 0x660 }
  - { offsetInCU: 0x8398, offset: 0x2F87FE, size: 0x8, addend: 0x0, symName: __ZL34ggml_compute_forward_add1_bf16_f32PK19ggml_compute_paramsP11ggml_tensor, symObjAddr: 0x9970, symBinAddr: 0xE87E0, symSize: 0x500 }
  - { offsetInCU: 0x8715, offset: 0x2F8B7B, size: 0x8, addend: 0x0, symName: __ZL33ggml_compute_forward_add1_f16_f32PK19ggml_compute_paramsP11ggml_tensor, symObjAddr: 0x8E60, symBinAddr: 0xE7CD0, symSize: 0x620 }
  - { offsetInCU: 0x8CF4, offset: 0x2F915A, size: 0x8, addend: 0x0, symName: _ggml_compute_forward_acc, symObjAddr: 0x9E70, symBinAddr: 0xE8CE0, symSize: 0x3C0 }
  - { offsetInCU: 0x93F1, offset: 0x2F9857, size: 0x8, addend: 0x0, symName: _ggml_compute_forward_sum, symObjAddr: 0xA230, symBinAddr: 0xE90A0, symSize: 0x5C0 }
  - { offsetInCU: 0x99C8, offset: 0x2F9E2E, size: 0x8, addend: 0x0, symName: _ggml_compute_forward_sum_rows, symObjAddr: 0xA7F0, symBinAddr: 0xE9660, symSize: 0x2E0 }
  - { offsetInCU: 0x9D4F, offset: 0x2FA1B5, size: 0x8, addend: 0x0, symName: _ggml_compute_forward_mean, symObjAddr: 0xAAD0, symBinAddr: 0xE9940, symSize: 0x1B0 }
  - { offsetInCU: 0x9FD0, offset: 0x2FA436, size: 0x8, addend: 0x0, symName: _ggml_compute_forward_argmax, symObjAddr: 0xAC80, symBinAddr: 0xE9AF0, symSize: 0x1B0 }
  - { offsetInCU: 0xA36D, offset: 0x2FA7D3, size: 0x8, addend: 0x0, symName: _ggml_compute_forward_count_equal, symObjAddr: 0xAE30, symBinAddr: 0xE9CA0, symSize: 0x550 }
  - { offsetInCU: 0xA9DD, offset: 0x2FAE43, size: 0x8, addend: 0x0, symName: _ggml_compute_forward_repeat, symObjAddr: 0xB380, symBinAddr: 0xEA1F0, symSize: 0x1510 }
  - { offsetInCU: 0xB054, offset: 0x2FB4BA, size: 0x8, addend: 0x0, symName: _ggml_compute_forward_repeat_back, symObjAddr: 0xC890, symBinAddr: 0xEB700, symSize: 0xD70 }
  - { offsetInCU: 0xBBD2, offset: 0x2FC038, size: 0x8, addend: 0x0, symName: _ggml_compute_forward_concat, symObjAddr: 0xD600, symBinAddr: 0xEC470, symSize: 0x2680 }
  - { offsetInCU: 0xC55B, offset: 0x2FC9C1, size: 0x8, addend: 0x0, symName: _ggml_compute_forward_leaky_relu, symObjAddr: 0xFC80, symBinAddr: 0xEEAF0, symSize: 0x560 }
  - { offsetInCU: 0xCA86, offset: 0x2FCEEC, size: 0x8, addend: 0x0, symName: _ggml_compute_forward_silu_back, symObjAddr: 0x101E0, symBinAddr: 0xEF050, symSize: 0x8E0 }
  - { offsetInCU: 0xD002, offset: 0x2FD468, size: 0x8, addend: 0x0, symName: _ggml_compute_forward_norm, symObjAddr: 0x10AC0, symBinAddr: 0xEF930, symSize: 0x660 }
  - { offsetInCU: 0xD2AC, offset: 0x2FD712, size: 0x8, addend: 0x0, symName: _ggml_compute_forward_rms_norm, symObjAddr: 0x11120, symBinAddr: 0xEFF90, symSize: 0x5C0 }
  - { offsetInCU: 0xD496, offset: 0x2FD8FC, size: 0x8, addend: 0x0, symName: _ggml_compute_forward_rms_norm, symObjAddr: 0x11120, symBinAddr: 0xEFF90, symSize: 0x5C0 }
  - { offsetInCU: 0xD9B6, offset: 0x2FDE1C, size: 0x8, addend: 0x0, symName: _ggml_compute_forward_rms_norm_back, symObjAddr: 0x116E0, symBinAddr: 0xF0550, symSize: 0x1050 }
  - { offsetInCU: 0xE141, offset: 0x2FE5A7, size: 0x8, addend: 0x0, symName: _ggml_compute_forward_group_norm, symObjAddr: 0x12730, symBinAddr: 0xF15A0, symSize: 0x6B0 }
  - { offsetInCU: 0xE643, offset: 0x2FEAA9, size: 0x8, addend: 0x0, symName: _ggml_compute_forward_l2_norm, symObjAddr: 0x12DE0, symBinAddr: 0xF1C50, symSize: 0x5B0 }
  - { offsetInCU: 0xF0BD, offset: 0x2FF523, size: 0x8, addend: 0x0, symName: _ggml_compute_forward_out_prod, symObjAddr: 0x13390, symBinAddr: 0xF2200, symSize: 0x2B30 }
  - { offsetInCU: 0xFB3B, offset: 0x2FFFA1, size: 0x8, addend: 0x0, symName: _ggml_compute_forward_scale, symObjAddr: 0x15EC0, symBinAddr: 0xF4D30, symSize: 0x1D0 }
  - { offsetInCU: 0x100F7, offset: 0x30055D, size: 0x8, addend: 0x0, symName: _ggml_compute_forward_set, symObjAddr: 0x16090, symBinAddr: 0xF4F00, symSize: 0xD30 }
  - { offsetInCU: 0x106BD, offset: 0x300B23, size: 0x8, addend: 0x0, symName: _ggml_compute_forward_cpy, symObjAddr: 0x16DC0, symBinAddr: 0xF5C30, symSize: 0x10 }
  - { offsetInCU: 0x10712, offset: 0x300B78, size: 0x8, addend: 0x0, symName: _ggml_compute_forward_cont, symObjAddr: 0x16DD0, symBinAddr: 0xF5C40, symSize: 0x10 }
  - { offsetInCU: 0x10767, offset: 0x300BCD, size: 0x8, addend: 0x0, symName: _ggml_compute_forward_reshape, symObjAddr: 0x16DE0, symBinAddr: 0xF5C50, symSize: 0x10 }
  - { offsetInCU: 0x1079D, offset: 0x300C03, size: 0x8, addend: 0x0, symName: _ggml_compute_forward_view, symObjAddr: 0x16DF0, symBinAddr: 0xF5C60, symSize: 0x10 }
  - { offsetInCU: 0x107D3, offset: 0x300C39, size: 0x8, addend: 0x0, symName: _ggml_compute_forward_permute, symObjAddr: 0x16E00, symBinAddr: 0xF5C70, symSize: 0x10 }
  - { offsetInCU: 0x10809, offset: 0x300C6F, size: 0x8, addend: 0x0, symName: _ggml_compute_forward_transpose, symObjAddr: 0x16E10, symBinAddr: 0xF5C80, symSize: 0x10 }
  - { offsetInCU: 0x110C5, offset: 0x30152B, size: 0x8, addend: 0x0, symName: _ggml_compute_forward_get_rows, symObjAddr: 0x16E20, symBinAddr: 0xF5C90, symSize: 0xB00 }
  - { offsetInCU: 0x11953, offset: 0x301DB9, size: 0x8, addend: 0x0, symName: _ggml_compute_forward_get_rows_back, symObjAddr: 0x17920, symBinAddr: 0xF6790, symSize: 0x6F0 }
  - { offsetInCU: 0x11D82, offset: 0x3021E8, size: 0x8, addend: 0x0, symName: _ggml_compute_forward_diag, symObjAddr: 0x18010, symBinAddr: 0xF6E80, symSize: 0x4E0 }
  - { offsetInCU: 0x11FA0, offset: 0x302406, size: 0x8, addend: 0x0, symName: _ggml_compute_forward_diag_mask_inf, symObjAddr: 0x184F0, symBinAddr: 0xF7360, symSize: 0x40 }
  - { offsetInCU: 0x12010, offset: 0x302476, size: 0x8, addend: 0x0, symName: __ZL34ggml_compute_forward_diag_mask_f32PK19ggml_compute_paramsP11ggml_tensorf, symObjAddr: 0x18530, symBinAddr: 0xF73A0, symSize: 0x2D0 }
  - { offsetInCU: 0x12249, offset: 0x3026AF, size: 0x8, addend: 0x0, symName: _ggml_compute_forward_diag_mask_zero, symObjAddr: 0x18800, symBinAddr: 0xF7670, symSize: 0x40 }
  - { offsetInCU: 0x12587, offset: 0x3029ED, size: 0x8, addend: 0x0, symName: _ggml_compute_forward_soft_max, symObjAddr: 0x18840, symBinAddr: 0xF76B0, symSize: 0x690 }
  - { offsetInCU: 0x12B03, offset: 0x302F69, size: 0x8, addend: 0x0, symName: _ggml_compute_forward_soft_max_ext_back, symObjAddr: 0x18ED0, symBinAddr: 0xF7D40, symSize: 0x6B0 }
  - { offsetInCU: 0x1311C, offset: 0x303582, size: 0x8, addend: 0x0, symName: _ggml_compute_forward_clamp, symObjAddr: 0x19580, symBinAddr: 0xF83F0, symSize: 0x910 }
  - { offsetInCU: 0x1346B, offset: 0x3038D1, size: 0x8, addend: 0x0, symName: _ggml_compute_forward_rope, symObjAddr: 0x19E90, symBinAddr: 0xF8D00, symSize: 0x50 }
  - { offsetInCU: 0x134F7, offset: 0x30395D, size: 0x8, addend: 0x0, symName: __ZL29ggml_compute_forward_rope_f16PK19ggml_compute_paramsP11ggml_tensorb, symObjAddr: 0x19EE0, symBinAddr: 0xF8D50, symSize: 0x2880 }
  - { offsetInCU: 0x14615, offset: 0x304A7B, size: 0x8, addend: 0x0, symName: __ZL29ggml_compute_forward_rope_f32PK19ggml_compute_paramsP11ggml_tensorb, symObjAddr: 0x1C760, symBinAddr: 0xFB5D0, symSize: 0x10D0 }
  - { offsetInCU: 0x153DC, offset: 0x305842, size: 0x8, addend: 0x0, symName: _ggml_compute_forward_rope_back, symObjAddr: 0x1D830, symBinAddr: 0xFC6A0, symSize: 0x40 }
  - { offsetInCU: 0x15454, offset: 0x3058BA, size: 0x8, addend: 0x0, symName: _ggml_compute_forward_conv_transpose_1d, symObjAddr: 0x1D870, symBinAddr: 0xFC6E0, symSize: 0x1AC0 }
  - { offsetInCU: 0x15AA0, offset: 0x305F06, size: 0x8, addend: 0x0, symName: _ggml_compute_forward_conv_transpose_1d, symObjAddr: 0x1D870, symBinAddr: 0xFC6E0, symSize: 0x1AC0 }
  - { offsetInCU: 0x1681E, offset: 0x306C84, size: 0x8, addend: 0x0, symName: _ggml_compute_forward_im2col, symObjAddr: 0x1F330, symBinAddr: 0xFE1A0, symSize: 0xE20 }
  - { offsetInCU: 0x16DD8, offset: 0x30723E, size: 0x8, addend: 0x0, symName: _ggml_compute_forward_im2col_back_f32, symObjAddr: 0x20150, symBinAddr: 0xFEFC0, symSize: 0xAA0 }
  - { offsetInCU: 0x17235, offset: 0x30769B, size: 0x8, addend: 0x0, symName: _ggml_compute_forward_conv_transpose_2d, symObjAddr: 0x20BF0, symBinAddr: 0xFFA60, symSize: 0x1420 }
  - { offsetInCU: 0x17C95, offset: 0x3080FB, size: 0x8, addend: 0x0, symName: _ggml_compute_forward_conv_2d_dw, symObjAddr: 0x22010, symBinAddr: 0x100E80, symSize: 0xA60 }
  - { offsetInCU: 0x18129, offset: 0x30858F, size: 0x8, addend: 0x0, symName: _ggml_compute_forward_pool_1d, symObjAddr: 0x22A70, symBinAddr: 0x1018E0, symSize: 0x6B0 }
  - { offsetInCU: 0x182A0, offset: 0x308706, size: 0x8, addend: 0x0, symName: _ggml_compute_forward_pool_2d, symObjAddr: 0x23120, symBinAddr: 0x101F90, symSize: 0xA20 }
  - { offsetInCU: 0x18564, offset: 0x3089CA, size: 0x8, addend: 0x0, symName: _ggml_compute_forward_pool_2d_back, symObjAddr: 0x23B40, symBinAddr: 0x1029B0, symSize: 0x5B0 }
  - { offsetInCU: 0x18E0A, offset: 0x309270, size: 0x8, addend: 0x0, symName: _ggml_compute_forward_upscale, symObjAddr: 0x240F0, symBinAddr: 0x102F60, symSize: 0x740 }
  - { offsetInCU: 0x19498, offset: 0x3098FE, size: 0x8, addend: 0x0, symName: _ggml_compute_forward_pad, symObjAddr: 0x24830, symBinAddr: 0x1036A0, symSize: 0x3A0 }
  - { offsetInCU: 0x19666, offset: 0x309ACC, size: 0x8, addend: 0x0, symName: _ggml_compute_forward_pad_reflect_1d, symObjAddr: 0x24BD0, symBinAddr: 0x103A40, symSize: 0x2010 }
  - { offsetInCU: 0x19B45, offset: 0x309FAB, size: 0x8, addend: 0x0, symName: _ggml_compute_forward_roll, symObjAddr: 0x26BE0, symBinAddr: 0x105A50, symSize: 0x650 }
  - { offsetInCU: 0x19F6A, offset: 0x30A3D0, size: 0x8, addend: 0x0, symName: _ggml_compute_forward_arange, symObjAddr: 0x27230, symBinAddr: 0x1060A0, symSize: 0x350 }
  - { offsetInCU: 0x1A26D, offset: 0x30A6D3, size: 0x8, addend: 0x0, symName: _ggml_compute_forward_timestep_embedding, symObjAddr: 0x27580, symBinAddr: 0x1063F0, symSize: 0xAA0 }
  - { offsetInCU: 0x1A5BE, offset: 0x30AA24, size: 0x8, addend: 0x0, symName: _ggml_compute_forward_argsort, symObjAddr: 0x28020, symBinAddr: 0x106E90, symSize: 0xC70 }
  - { offsetInCU: 0x1A742, offset: 0x30ABA8, size: 0x8, addend: 0x0, symName: _ggml_compute_forward_flash_attn_ext, symObjAddr: 0x28C90, symBinAddr: 0x107B00, symSize: 0x1BA0 }
  - { offsetInCU: 0x1ADCD, offset: 0x30B233, size: 0x8, addend: 0x0, symName: _ggml_compute_forward_flash_attn_ext, symObjAddr: 0x28C90, symBinAddr: 0x107B00, symSize: 0x1BA0 }
  - { offsetInCU: 0x1C069, offset: 0x30C4CF, size: 0x8, addend: 0x0, symName: _ggml_compute_forward_flash_attn_back, symObjAddr: 0x2A830, symBinAddr: 0x1096A0, symSize: 0x17E0 }
  - { offsetInCU: 0x1CD93, offset: 0x30D1F9, size: 0x8, addend: 0x0, symName: _ggml_compute_forward_ssm_conv, symObjAddr: 0x2C010, symBinAddr: 0x10AE80, symSize: 0x480 }
  - { offsetInCU: 0x1D146, offset: 0x30D5AC, size: 0x8, addend: 0x0, symName: _ggml_compute_forward_ssm_scan, symObjAddr: 0x2C490, symBinAddr: 0x10B300, symSize: 0x7C0 }
  - { offsetInCU: 0x1D5B3, offset: 0x30DA19, size: 0x8, addend: 0x0, symName: _ggml_compute_forward_win_part, symObjAddr: 0x2CC50, symBinAddr: 0x10BAC0, symSize: 0xA00 }
  - { offsetInCU: 0x1D86C, offset: 0x30DCD2, size: 0x8, addend: 0x0, symName: _ggml_compute_forward_win_unpart, symObjAddr: 0x2D650, symBinAddr: 0x10C4C0, symSize: 0x5C0 }
  - { offsetInCU: 0x1E20E, offset: 0x30E674, size: 0x8, addend: 0x0, symName: _ggml_compute_forward_unary, symObjAddr: 0x2DC10, symBinAddr: 0x10CA80, symSize: 0x1130 }
  - { offsetInCU: 0x1F315, offset: 0x30F77B, size: 0x8, addend: 0x0, symName: _ggml_compute_forward_get_rel_pos, symObjAddr: 0x2ED40, symBinAddr: 0x10DBB0, symSize: 0x460 }
  - { offsetInCU: 0x1F5D4, offset: 0x30FA3A, size: 0x8, addend: 0x0, symName: _ggml_compute_forward_add_rel_pos, symObjAddr: 0x2F1A0, symBinAddr: 0x10E010, symSize: 0x3C0 }
  - { offsetInCU: 0x1FA62, offset: 0x30FEC8, size: 0x8, addend: 0x0, symName: _ggml_compute_forward_rwkv_wkv6, symObjAddr: 0x2F560, symBinAddr: 0x10E3D0, symSize: 0xAB0 }
  - { offsetInCU: 0x1FF3C, offset: 0x3103A2, size: 0x8, addend: 0x0, symName: _ggml_compute_forward_gla, symObjAddr: 0x30010, symBinAddr: 0x10EE80, symSize: 0xA40 }
  - { offsetInCU: 0x20586, offset: 0x3109EC, size: 0x8, addend: 0x0, symName: _ggml_compute_forward_rwkv_wkv7, symObjAddr: 0x30A50, symBinAddr: 0x10F8C0, symSize: 0x790 }
  - { offsetInCU: 0x208F8, offset: 0x310D5E, size: 0x8, addend: 0x0, symName: _ggml_compute_forward_map_custom1, symObjAddr: 0x311E0, symBinAddr: 0x110050, symSize: 0x30 }
  - { offsetInCU: 0x20969, offset: 0x310DCF, size: 0x8, addend: 0x0, symName: _ggml_compute_forward_map_custom2, symObjAddr: 0x31210, symBinAddr: 0x110080, symSize: 0x30 }
  - { offsetInCU: 0x209EB, offset: 0x310E51, size: 0x8, addend: 0x0, symName: _ggml_compute_forward_map_custom3, symObjAddr: 0x31240, symBinAddr: 0x1100B0, symSize: 0x40 }
  - { offsetInCU: 0x20A7E, offset: 0x310EE4, size: 0x8, addend: 0x0, symName: _ggml_compute_forward_custom, symObjAddr: 0x31280, symBinAddr: 0x1100F0, symSize: 0x20 }
  - { offsetInCU: 0x20C57, offset: 0x3110BD, size: 0x8, addend: 0x0, symName: _ggml_compute_forward_cross_entropy_loss, symObjAddr: 0x312A0, symBinAddr: 0x110110, symSize: 0x640 }
  - { offsetInCU: 0x210C6, offset: 0x31152C, size: 0x8, addend: 0x0, symName: _ggml_compute_forward_cross_entropy_loss_back, symObjAddr: 0x318E0, symBinAddr: 0x110750, symSize: 0x580 }
  - { offsetInCU: 0x21252, offset: 0x3116B8, size: 0x8, addend: 0x0, symName: _ggml_compute_forward_cross_entropy_loss_back, symObjAddr: 0x318E0, symBinAddr: 0x110750, symSize: 0x580 }
  - { offsetInCU: 0x21984, offset: 0x311DEA, size: 0x8, addend: 0x0, symName: _ggml_compute_forward_opt_step_adamw, symObjAddr: 0x31E60, symBinAddr: 0x110CD0, symSize: 0x633 }
  - { offsetInCU: 0x26, offset: 0x3122F3, size: 0x8, addend: 0x0, symName: _quantize_row_q4_0, symObjAddr: 0x0, symBinAddr: 0x111310, symSize: 0x10 }
  - { offsetInCU: 0x34, offset: 0x312301, size: 0x8, addend: 0x0, symName: _ggml_vec_dot_q4_K_q8_K, symObjAddr: 0x43B0, symBinAddr: 0x1156C0, symSize: 0x690 }
  - { offsetInCU: 0x42E, offset: 0x3126FB, size: 0x8, addend: 0x0, symName: _ggml_vec_dot_q5_K_q8_K, symObjAddr: 0x4A40, symBinAddr: 0x115D50, symSize: 0x840 }
  - { offsetInCU: 0x86E, offset: 0x312B3B, size: 0x8, addend: 0x0, symName: _iq2xxs_grid, symObjAddr: 0x9240, symBinAddr: 0x170BE0, symSize: 0x0 }
  - { offsetInCU: 0x8B4, offset: 0x312B81, size: 0x8, addend: 0x0, symName: _ksigns_iq2xs, symObjAddr: 0x9A40, symBinAddr: 0x1713E0, symSize: 0x0 }
  - { offsetInCU: 0x8F2, offset: 0x312BBF, size: 0x8, addend: 0x0, symName: _iq2xs_grid, symObjAddr: 0x9AC0, symBinAddr: 0x171460, symSize: 0x0 }
  - { offsetInCU: 0x918, offset: 0x312BE5, size: 0x8, addend: 0x0, symName: _iq2s_grid, symObjAddr: 0xAAC0, symBinAddr: 0x172460, symSize: 0x0 }
  - { offsetInCU: 0x93E, offset: 0x312C0B, size: 0x8, addend: 0x0, symName: _iq3xxs_grid, symObjAddr: 0xCAC0, symBinAddr: 0x174460, symSize: 0x0 }
  - { offsetInCU: 0x964, offset: 0x312C31, size: 0x8, addend: 0x0, symName: _iq3s_grid, symObjAddr: 0xCEC0, symBinAddr: 0x174860, symSize: 0x0 }
  - { offsetInCU: 0x98A, offset: 0x312C57, size: 0x8, addend: 0x0, symName: _iq1s_grid, symObjAddr: 0xD6C0, symBinAddr: 0x175060, symSize: 0x0 }
  - { offsetInCU: 0x9B0, offset: 0x312C7D, size: 0x8, addend: 0x0, symName: _kvalues_iq4nl, symObjAddr: 0x116C0, symBinAddr: 0x179060, symSize: 0x0 }
  - { offsetInCU: 0xA13, offset: 0x312CE0, size: 0x8, addend: 0x0, symName: _quantize_row_q4_0, symObjAddr: 0x0, symBinAddr: 0x111310, symSize: 0x10 }
  - { offsetInCU: 0xB0D, offset: 0x312DDA, size: 0x8, addend: 0x0, symName: _quantize_row_q4_1, symObjAddr: 0x10, symBinAddr: 0x111320, symSize: 0x10 }
  - { offsetInCU: 0xC0C, offset: 0x312ED9, size: 0x8, addend: 0x0, symName: _quantize_row_q5_0, symObjAddr: 0x20, symBinAddr: 0x111330, symSize: 0x10 }
  - { offsetInCU: 0xCE2, offset: 0x312FAF, size: 0x8, addend: 0x0, symName: _quantize_row_q5_1, symObjAddr: 0x30, symBinAddr: 0x111340, symSize: 0x10 }
  - { offsetInCU: 0xDE2, offset: 0x3130AF, size: 0x8, addend: 0x0, symName: _quantize_row_q8_0, symObjAddr: 0x40, symBinAddr: 0x111350, symSize: 0x10 }
  - { offsetInCU: 0xEAB, offset: 0x313178, size: 0x8, addend: 0x0, symName: _quantize_row_q8_1, symObjAddr: 0x50, symBinAddr: 0x111360, symSize: 0x10 }
  - { offsetInCU: 0xF9E, offset: 0x31326B, size: 0x8, addend: 0x0, symName: _quantize_row_q2_K, symObjAddr: 0x60, symBinAddr: 0x111370, symSize: 0x10 }
  - { offsetInCU: 0x10B7, offset: 0x313384, size: 0x8, addend: 0x0, symName: _quantize_row_q3_K, symObjAddr: 0x70, symBinAddr: 0x111380, symSize: 0x10 }
  - { offsetInCU: 0x11AE, offset: 0x31347B, size: 0x8, addend: 0x0, symName: _quantize_row_q4_K, symObjAddr: 0x80, symBinAddr: 0x111390, symSize: 0x10 }
  - { offsetInCU: 0x12D4, offset: 0x3135A1, size: 0x8, addend: 0x0, symName: _quantize_row_q5_K, symObjAddr: 0x90, symBinAddr: 0x1113A0, symSize: 0x10 }
  - { offsetInCU: 0x13FA, offset: 0x3136C7, size: 0x8, addend: 0x0, symName: _quantize_row_q6_K, symObjAddr: 0xA0, symBinAddr: 0x1113B0, symSize: 0x10 }
  - { offsetInCU: 0x14F0, offset: 0x3137BD, size: 0x8, addend: 0x0, symName: _quantize_row_tq1_0, symObjAddr: 0xB0, symBinAddr: 0x1113C0, symSize: 0x10 }
  - { offsetInCU: 0x15D3, offset: 0x3138A0, size: 0x8, addend: 0x0, symName: _quantize_row_tq2_0, symObjAddr: 0xC0, symBinAddr: 0x1113D0, symSize: 0x10 }
  - { offsetInCU: 0x169B, offset: 0x313968, size: 0x8, addend: 0x0, symName: _quantize_row_q8_K, symObjAddr: 0xD0, symBinAddr: 0x1113E0, symSize: 0x10 }
  - { offsetInCU: 0x179A, offset: 0x313A67, size: 0x8, addend: 0x0, symName: _ggml_vec_dot_q4_0_q8_0, symObjAddr: 0xE0, symBinAddr: 0x1113F0, symSize: 0x1A0 }
  - { offsetInCU: 0x1927, offset: 0x313BF4, size: 0x8, addend: 0x0, symName: _ggml_vec_dot_q4_1_q8_1, symObjAddr: 0x280, symBinAddr: 0x111590, symSize: 0x320 }
  - { offsetInCU: 0x1AC6, offset: 0x313D93, size: 0x8, addend: 0x0, symName: _ggml_vec_dot_q5_0_q8_0, symObjAddr: 0x5A0, symBinAddr: 0x1118B0, symSize: 0x4E0 }
  - { offsetInCU: 0x1C5D, offset: 0x313F2A, size: 0x8, addend: 0x0, symName: _ggml_vec_dot_q5_1_q8_1, symObjAddr: 0xA80, symBinAddr: 0x111D90, symSize: 0x410 }
  - { offsetInCU: 0x1E0D, offset: 0x3140DA, size: 0x8, addend: 0x0, symName: _ggml_vec_dot_q8_0_q8_0, symObjAddr: 0xE90, symBinAddr: 0x1121A0, symSize: 0x100 }
  - { offsetInCU: 0x1F56, offset: 0x314223, size: 0x8, addend: 0x0, symName: _ggml_vec_dot_tq1_0_q8_K, symObjAddr: 0xF90, symBinAddr: 0x1122A0, symSize: 0x1480 }
  - { offsetInCU: 0x21A3, offset: 0x314470, size: 0x8, addend: 0x0, symName: _ggml_vec_dot_tq2_0_q8_K, symObjAddr: 0x2410, symBinAddr: 0x113720, symSize: 0x11C0 }
  - { offsetInCU: 0x231F, offset: 0x3145EC, size: 0x8, addend: 0x0, symName: _ggml_vec_dot_q2_K_q8_K, symObjAddr: 0x35D0, symBinAddr: 0x1148E0, symSize: 0x620 }
  - { offsetInCU: 0x25BD, offset: 0x31488A, size: 0x8, addend: 0x0, symName: _ggml_vec_dot_q3_K_q8_K, symObjAddr: 0x3BF0, symBinAddr: 0x114F00, symSize: 0x7C0 }
  - { offsetInCU: 0x2966, offset: 0x314C33, size: 0x8, addend: 0x0, symName: _ggml_vec_dot_q6_K_q8_K, symObjAddr: 0x5280, symBinAddr: 0x116590, symSize: 0x540 }
  - { offsetInCU: 0x2C3B, offset: 0x314F08, size: 0x8, addend: 0x0, symName: _ggml_vec_dot_iq2_xxs_q8_K, symObjAddr: 0x57C0, symBinAddr: 0x116AD0, symSize: 0x560 }
  - { offsetInCU: 0x2E70, offset: 0x31513D, size: 0x8, addend: 0x0, symName: _ggml_vec_dot_iq2_xs_q8_K, symObjAddr: 0x5D20, symBinAddr: 0x117030, symSize: 0x5A0 }
  - { offsetInCU: 0x30E4, offset: 0x3153B1, size: 0x8, addend: 0x0, symName: _ggml_vec_dot_iq2_s_q8_K, symObjAddr: 0x62C0, symBinAddr: 0x1175D0, symSize: 0x650 }
  - { offsetInCU: 0x336C, offset: 0x315639, size: 0x8, addend: 0x0, symName: _ggml_vec_dot_iq3_xxs_q8_K, symObjAddr: 0x6910, symBinAddr: 0x117C20, symSize: 0x640 }
  - { offsetInCU: 0x3596, offset: 0x315863, size: 0x8, addend: 0x0, symName: _ggml_vec_dot_iq3_s_q8_K, symObjAddr: 0x6F50, symBinAddr: 0x118260, symSize: 0x980 }
  - { offsetInCU: 0x382F, offset: 0x315AFC, size: 0x8, addend: 0x0, symName: _ggml_vec_dot_iq1_s_q8_K, symObjAddr: 0x78D0, symBinAddr: 0x118BE0, symSize: 0x240 }
  - { offsetInCU: 0x3A4A, offset: 0x315D17, size: 0x8, addend: 0x0, symName: _ggml_vec_dot_iq1_m_q8_K, symObjAddr: 0x7B10, symBinAddr: 0x118E20, symSize: 0x4F0 }
  - { offsetInCU: 0x3CDB, offset: 0x315FA8, size: 0x8, addend: 0x0, symName: _ggml_vec_dot_iq4_nl_q8_0, symObjAddr: 0x8000, symBinAddr: 0x119310, symSize: 0x460 }
  - { offsetInCU: 0x3E3E, offset: 0x31610B, size: 0x8, addend: 0x0, symName: _ggml_vec_dot_iq4_xs_q8_K, symObjAddr: 0x8460, symBinAddr: 0x119770, symSize: 0x9C0 }
  - { offsetInCU: 0x4066, offset: 0x316333, size: 0x8, addend: 0x0, symName: _quantize_row_iq4_nl, symObjAddr: 0x8E20, symBinAddr: 0x11A130, symSize: 0x10 }
  - { offsetInCU: 0x4129, offset: 0x3163F6, size: 0x8, addend: 0x0, symName: _quantize_row_iq4_xs, symObjAddr: 0x8E30, symBinAddr: 0x11A140, symSize: 0x15 }
  - { offsetInCU: 0x26, offset: 0x3169B5, size: 0x8, addend: 0x0, symName: _ggml_quantize_mat_q8_0_4x4, symObjAddr: 0x0, symBinAddr: 0x11A160, symSize: 0x440 }
  - { offsetInCU: 0x34, offset: 0x3169C3, size: 0x8, addend: 0x0, symName: _ggml_gemv_q4_K_8x8_q8_K, symObjAddr: 0x2460, symBinAddr: 0x11C5C0, symSize: 0x1540 }
  - { offsetInCU: 0x370, offset: 0x316CFF, size: 0x8, addend: 0x0, symName: _ggml_gemm_q4_K_8x8_q8_K, symObjAddr: 0x65E0, symBinAddr: 0x120740, symSize: 0x1870 }
  - { offsetInCU: 0x740, offset: 0x3170CF, size: 0x8, addend: 0x0, symName: __Z35ggml_backend_cpu_repack_buffer_typev, symObjAddr: 0xA090, symBinAddr: 0x1241F0, symSize: 0xD0 }
  - { offsetInCU: 0x76C, offset: 0x3170FB, size: 0x8, addend: 0x0, symName: __ZZ35ggml_backend_cpu_repack_buffer_typevE35ggml_backend_cpu_buffer_type_repack, symObjAddr: 0x45370, symBinAddr: 0x211F00, symSize: 0x0 }
  - { offsetInCU: 0x84A, offset: 0x3171D9, size: 0x8, addend: 0x0, symName: __ZL13kvalues_iq4nl, symObjAddr: 0xF360, symBinAddr: 0x179210, symSize: 0x0 }
  - { offsetInCU: 0x872, offset: 0x317201, size: 0x8, addend: 0x0, symName: __ZL35ggml_repack_get_optimal_repack_typePK11ggml_tensor, symObjAddr: 0xA2B0, symBinAddr: 0x124410, symSize: 0x280 }
  - { offsetInCU: 0x89E, offset: 0x31722D, size: 0x8, addend: 0x0, symName: __ZZL35ggml_repack_get_optimal_repack_typePK11ggml_tensorE13q4_0_4x4_q8_0, symObjAddr: 0xF870, symBinAddr: 0x1A54A0, symSize: 0x0 }
  - { offsetInCU: 0x8B5, offset: 0x317244, size: 0x8, addend: 0x0, symName: __ZZL35ggml_repack_get_optimal_repack_typePK11ggml_tensorE13q4_0_4x8_q8_0, symObjAddr: 0xF878, symBinAddr: 0x1A54A8, symSize: 0x0 }
  - { offsetInCU: 0x8CC, offset: 0x31725B, size: 0x8, addend: 0x0, symName: __ZZL35ggml_repack_get_optimal_repack_typePK11ggml_tensorE13q4_0_8x8_q8_0, symObjAddr: 0xF880, symBinAddr: 0x1A54B0, symSize: 0x0 }
  - { offsetInCU: 0x8E3, offset: 0x317272, size: 0x8, addend: 0x0, symName: __ZZL35ggml_repack_get_optimal_repack_typePK11ggml_tensorE13q4_K_8x8_q8_K, symObjAddr: 0xF888, symBinAddr: 0x1A54B8, symSize: 0x0 }
  - { offsetInCU: 0x8FA, offset: 0x317289, size: 0x8, addend: 0x0, symName: __ZZL35ggml_repack_get_optimal_repack_typePK11ggml_tensorE15iq4_nl_4x4_q8_0, symObjAddr: 0xF890, symBinAddr: 0x1A54C0, symSize: 0x0 }
  - { offsetInCU: 0xF62, offset: 0x3178F1, size: 0x8, addend: 0x0, symName: __ZN4ggml3cpu6repack6repackI10block_q4_0Lx4ELx4EEEiP11ggml_tensorPKvm, symObjAddr: 0x8630, symBinAddr: 0x122790, symSize: 0x20 }
  - { offsetInCU: 0xFC0, offset: 0x31794F, size: 0x8, addend: 0x0, symName: __ZN4ggml3cpu6repack6repackI10block_q4_0Lx8ELx4EEEiP11ggml_tensorPKvm, symObjAddr: 0x8B30, symBinAddr: 0x122C90, symSize: 0x20 }
  - { offsetInCU: 0x101E, offset: 0x3179AD, size: 0x8, addend: 0x0, symName: __ZN4ggml3cpu6repack6repackI10block_q4_0Lx8ELx8EEEiP11ggml_tensorPKvm, symObjAddr: 0x8B50, symBinAddr: 0x122CB0, symSize: 0x440 }
  - { offsetInCU: 0x11B7, offset: 0x317B46, size: 0x8, addend: 0x0, symName: __ZN4ggml3cpu6repack6repackI10block_q4_KLx8ELx8EEEiP11ggml_tensorPKvm, symObjAddr: 0x8F90, symBinAddr: 0x1230F0, symSize: 0xD90 }
  - { offsetInCU: 0x140F, offset: 0x317D9E, size: 0x8, addend: 0x0, symName: __ZN4ggml3cpu6repack6repackI12block_iq4_nlLx4ELx4EEEiP11ggml_tensorPKvm, symObjAddr: 0x9D20, symBinAddr: 0x123E80, symSize: 0x2D0 }
  - { offsetInCU: 0x155D, offset: 0x317EEC, size: 0x8, addend: 0x0, symName: __ZN4ggml3cpu6repack4gemvI10block_q4_0Lx4ELx4EL9ggml_type8EEEviPfmPKvS7_ii, symObjAddr: 0x9FF0, symBinAddr: 0x124150, symSize: 0x10 }
  - { offsetInCU: 0x15DA, offset: 0x317F69, size: 0x8, addend: 0x0, symName: __ZN4ggml3cpu6repack4gemvI10block_q4_0Lx8ELx4EL9ggml_type8EEEviPfmPKvS7_ii, symObjAddr: 0xA000, symBinAddr: 0x124160, symSize: 0x10 }
  - { offsetInCU: 0x1657, offset: 0x317FE6, size: 0x8, addend: 0x0, symName: __ZN4ggml3cpu6repack4gemvI10block_q4_0Lx8ELx8EL9ggml_type8EEEviPfmPKvS7_ii, symObjAddr: 0xA010, symBinAddr: 0x124170, symSize: 0x10 }
  - { offsetInCU: 0x16D4, offset: 0x318063, size: 0x8, addend: 0x0, symName: __ZN4ggml3cpu6repack4gemvI10block_q4_KLx8ELx8EL9ggml_type15EEEviPfmPKvS7_ii, symObjAddr: 0xA020, symBinAddr: 0x124180, symSize: 0x10 }
  - { offsetInCU: 0x1751, offset: 0x3180E0, size: 0x8, addend: 0x0, symName: __ZN4ggml3cpu6repack4gemvI12block_iq4_nlLx4ELx4EL9ggml_type8EEEviPfmPKvS7_ii, symObjAddr: 0xA030, symBinAddr: 0x124190, symSize: 0x10 }
  - { offsetInCU: 0x17CE, offset: 0x31815D, size: 0x8, addend: 0x0, symName: __ZN4ggml3cpu6repack4gemmI10block_q4_0Lx4ELx4EL9ggml_type8EEEviPfmPKvS7_ii, symObjAddr: 0xA040, symBinAddr: 0x1241A0, symSize: 0x10 }
  - { offsetInCU: 0x185B, offset: 0x3181EA, size: 0x8, addend: 0x0, symName: __ZN4ggml3cpu6repack4gemmI10block_q4_0Lx8ELx4EL9ggml_type8EEEviPfmPKvS7_ii, symObjAddr: 0xA050, symBinAddr: 0x1241B0, symSize: 0x10 }
  - { offsetInCU: 0x18E8, offset: 0x318277, size: 0x8, addend: 0x0, symName: __ZN4ggml3cpu6repack4gemmI10block_q4_0Lx8ELx8EL9ggml_type8EEEviPfmPKvS7_ii, symObjAddr: 0xA060, symBinAddr: 0x1241C0, symSize: 0x10 }
  - { offsetInCU: 0x1975, offset: 0x318304, size: 0x8, addend: 0x0, symName: __ZN4ggml3cpu6repack4gemmI10block_q4_KLx8ELx8EL9ggml_type15EEEviPfmPKvS7_ii, symObjAddr: 0xA070, symBinAddr: 0x1241D0, symSize: 0x10 }
  - { offsetInCU: 0x1A02, offset: 0x318391, size: 0x8, addend: 0x0, symName: __ZN4ggml3cpu6repack4gemmI12block_iq4_nlLx4ELx4EL9ggml_type8EEEviPfmPKvS7_ii, symObjAddr: 0xA080, symBinAddr: 0x1241E0, symSize: 0x10 }
  - { offsetInCU: 0x2604, offset: 0x318F93, size: 0x8, addend: 0x0, symName: __ZN4ggml3cpu6repack13tensor_traitsI10block_q4_0Lx4ELx4EL9ggml_type8EE18forward_mul_mat_idEP19ggml_compute_paramsP11ggml_tensor, symObjAddr: 0xB1A0, symBinAddr: 0x125300, symSize: 0x760 }
  - { offsetInCU: 0x2CAE, offset: 0x31963D, size: 0x8, addend: 0x0, symName: __ZN4ggml3cpu6repack13tensor_traitsI10block_q4_0Lx8ELx4EL9ggml_type8EE18forward_mul_mat_idEP19ggml_compute_paramsP11ggml_tensor, symObjAddr: 0xBE70, symBinAddr: 0x125FD0, symSize: 0x760 }
  - { offsetInCU: 0x3353, offset: 0x319CE2, size: 0x8, addend: 0x0, symName: __ZN4ggml3cpu6repack13tensor_traitsI10block_q4_0Lx8ELx8EL9ggml_type8EE18forward_mul_mat_idEP19ggml_compute_paramsP11ggml_tensor, symObjAddr: 0xCB40, symBinAddr: 0x126CA0, symSize: 0x760 }
  - { offsetInCU: 0x39F8, offset: 0x31A387, size: 0x8, addend: 0x0, symName: __ZN4ggml3cpu6repack13tensor_traitsI10block_q4_KLx8ELx8EL9ggml_type15EE18forward_mul_mat_idEP19ggml_compute_paramsP11ggml_tensor, symObjAddr: 0xD810, symBinAddr: 0x127970, symSize: 0x760 }
  - { offsetInCU: 0x409D, offset: 0x31AA2C, size: 0x8, addend: 0x0, symName: __ZN4ggml3cpu6repack13tensor_traitsI12block_iq4_nlLx4ELx4EL9ggml_type8EE18forward_mul_mat_idEP19ggml_compute_paramsP11ggml_tensor, symObjAddr: 0xE4E0, symBinAddr: 0x128640, symSize: 0x760 }
  - { offsetInCU: 0x73E4, offset: 0x31DD73, size: 0x8, addend: 0x0, symName: _ggml_quantize_mat_q8_0_4x4, symObjAddr: 0x0, symBinAddr: 0x11A160, symSize: 0x440 }
  - { offsetInCU: 0x763D, offset: 0x31DFCC, size: 0x8, addend: 0x0, symName: _ggml_quantize_mat_q8_0_4x8, symObjAddr: 0x440, symBinAddr: 0x11A5A0, symSize: 0x440 }
  - { offsetInCU: 0x78CC, offset: 0x31E25B, size: 0x8, addend: 0x0, symName: _ggml_quantize_mat_q8_K_4x8, symObjAddr: 0x880, symBinAddr: 0x11A9E0, symSize: 0x580 }
  - { offsetInCU: 0x7AA2, offset: 0x31E431, size: 0x8, addend: 0x0, symName: __Z19ggml_quantize_mat_tILx4EL9ggml_type8EEvPKfPvxx, symObjAddr: 0xE00, symBinAddr: 0x11AF60, symSize: 0x10 }
  - { offsetInCU: 0x7B00, offset: 0x31E48F, size: 0x8, addend: 0x0, symName: __Z19ggml_quantize_mat_tILx8EL9ggml_type8EEvPKfPvxx, symObjAddr: 0xE10, symBinAddr: 0x11AF70, symSize: 0x10 }
  - { offsetInCU: 0x7B5E, offset: 0x31E4ED, size: 0x8, addend: 0x0, symName: __Z19ggml_quantize_mat_tILx8EL9ggml_type15EEvPKfPvxx, symObjAddr: 0xE20, symBinAddr: 0x11AF80, symSize: 0x10 }
  - { offsetInCU: 0x7BBC, offset: 0x31E54B, size: 0x8, addend: 0x0, symName: _ggml_gemv_q4_0_4x4_q8_0, symObjAddr: 0xE30, symBinAddr: 0x11AF90, symSize: 0x470 }
  - { offsetInCU: 0x7D89, offset: 0x31E718, size: 0x8, addend: 0x0, symName: _ggml_gemv_q4_0_4x8_q8_0, symObjAddr: 0x12A0, symBinAddr: 0x11B400, symSize: 0x770 }
  - { offsetInCU: 0x7F6C, offset: 0x31E8FB, size: 0x8, addend: 0x0, symName: _ggml_gemv_q4_0_8x8_q8_0, symObjAddr: 0x1A10, symBinAddr: 0x11BB70, symSize: 0xA50 }
  - { offsetInCU: 0x8179, offset: 0x31EB08, size: 0x8, addend: 0x0, symName: _ggml_gemv_iq4_nl_4x4_q8_0, symObjAddr: 0x39A0, symBinAddr: 0x11DB00, symSize: 0x550 }
  - { offsetInCU: 0x8361, offset: 0x31ECF0, size: 0x8, addend: 0x0, symName: _ggml_gemm_q4_0_4x4_q8_0, symObjAddr: 0x3EF0, symBinAddr: 0x11E050, symSize: 0xB10 }
  - { offsetInCU: 0x85BC, offset: 0x31EF4B, size: 0x8, addend: 0x0, symName: _ggml_gemm_q4_0_4x8_q8_0, symObjAddr: 0x4A00, symBinAddr: 0x11EB60, symSize: 0x920 }
  - { offsetInCU: 0x881B, offset: 0x31F1AA, size: 0x8, addend: 0x0, symName: _ggml_gemm_q4_0_8x8_q8_0, symObjAddr: 0x5320, symBinAddr: 0x11F480, symSize: 0x12C0 }
  - { offsetInCU: 0x8A73, offset: 0x31F402, size: 0x8, addend: 0x0, symName: _ggml_gemm_iq4_nl_4x4_q8_0, symObjAddr: 0x7E50, symBinAddr: 0x121FB0, symSize: 0x7E0 }
  - { offsetInCU: 0x8CEC, offset: 0x31F67B, size: 0x8, addend: 0x0, symName: __ZL24repack_q4_0_to_q4_0_4_blP11ggml_tensoriPKvm, symObjAddr: 0x8650, symBinAddr: 0x1227B0, symSize: 0x4E0 }
  - { offsetInCU: 0x9527, offset: 0x31FEB6, size: 0x8, addend: 0x0, symName: __ZL44ggml_backend_cpu_repack_buffer_type_get_nameP24ggml_backend_buffer_type, symObjAddr: 0xA160, symBinAddr: 0x1242C0, symSize: 0x10 }
  - { offsetInCU: 0x9553, offset: 0x31FEE2, size: 0x8, addend: 0x0, symName: __ZL48ggml_backend_cpu_repack_buffer_type_alloc_bufferP24ggml_backend_buffer_typem, symObjAddr: 0xA170, symBinAddr: 0x1242D0, symSize: 0x50 }
  - { offsetInCU: 0x95EE, offset: 0x31FF7D, size: 0x8, addend: 0x0, symName: __ZL49ggml_backend_cpu_repack_buffer_type_get_alignmentP24ggml_backend_buffer_type, symObjAddr: 0xA1C0, symBinAddr: 0x124320, symSize: 0x10 }
  - { offsetInCU: 0x961A, offset: 0x31FFA9, size: 0x8, addend: 0x0, symName: __ZL42ggml_backend_cpu_repack_buffer_init_tensorP19ggml_backend_bufferP11ggml_tensor, symObjAddr: 0xA1D0, symBinAddr: 0x124330, symSize: 0x30 }
  - { offsetInCU: 0x966F, offset: 0x31FFFE, size: 0x8, addend: 0x0, symName: __ZL41ggml_backend_cpu_repack_buffer_set_tensorP19ggml_backend_bufferP11ggml_tensorPKvmm, symObjAddr: 0xA200, symBinAddr: 0x124360, symSize: 0xB0 }
  - { offsetInCU: 0x980D, offset: 0x32019C, size: 0x8, addend: 0x0, symName: __ZN4ggml3cpu6repack13tensor_traitsI10block_q4_0Lx4ELx4EL9ggml_type8EED1Ev, symObjAddr: 0xA530, symBinAddr: 0x124690, symSize: 0x10 }
  - { offsetInCU: 0x988F, offset: 0x32021E, size: 0x8, addend: 0x0, symName: __ZN4ggml3cpu6repack13tensor_traitsI10block_q4_0Lx8ELx4EL9ggml_type8EED1Ev, symObjAddr: 0xA540, symBinAddr: 0x1246A0, symSize: 0x10 }
  - { offsetInCU: 0x9911, offset: 0x3202A0, size: 0x8, addend: 0x0, symName: __ZN4ggml3cpu6repack13tensor_traitsI10block_q4_0Lx8ELx8EL9ggml_type8EED1Ev, symObjAddr: 0xA550, symBinAddr: 0x1246B0, symSize: 0x10 }
  - { offsetInCU: 0x9993, offset: 0x320322, size: 0x8, addend: 0x0, symName: __ZN4ggml3cpu6repack13tensor_traitsI10block_q4_KLx8ELx8EL9ggml_type15EED1Ev, symObjAddr: 0xA560, symBinAddr: 0x1246C0, symSize: 0x10 }
  - { offsetInCU: 0x9A15, offset: 0x3203A4, size: 0x8, addend: 0x0, symName: __ZN4ggml3cpu6repack13tensor_traitsI12block_iq4_nlLx4ELx4EL9ggml_type8EED1Ev, symObjAddr: 0xA570, symBinAddr: 0x1246D0, symSize: 0x10 }
  - { offsetInCU: 0x9A91, offset: 0x320420, size: 0x8, addend: 0x0, symName: __ZN4ggml3cpu6repack13tensor_traitsI10block_q4_0Lx4ELx4EL9ggml_type8EED0Ev, symObjAddr: 0xA580, symBinAddr: 0x1246E0, symSize: 0x20 }
  - { offsetInCU: 0x9B1B, offset: 0x3204AA, size: 0x8, addend: 0x0, symName: __ZN4ggml3cpu6repack13tensor_traitsI10block_q4_0Lx4ELx4EL9ggml_type8EE9work_sizeEiPK11ggml_tensorRm, symObjAddr: 0xA5A0, symBinAddr: 0x124700, symSize: 0x90 }
  - { offsetInCU: 0x9C24, offset: 0x3205B3, size: 0x8, addend: 0x0, symName: __ZN4ggml3cpu6repack13tensor_traitsI10block_q4_0Lx4ELx4EL9ggml_type8EE15compute_forwardEP19ggml_compute_paramsP11ggml_tensor, symObjAddr: 0xA630, symBinAddr: 0x124790, symSize: 0x30 }
  - { offsetInCU: 0x9C89, offset: 0x320618, size: 0x8, addend: 0x0, symName: __ZN4ggml3cpu6repack13tensor_traitsI10block_q4_0Lx4ELx4EL9ggml_type8EE15forward_mul_matEP19ggml_compute_paramsP11ggml_tensor, symObjAddr: 0xAC30, symBinAddr: 0x124D90, symSize: 0x570 }
  - { offsetInCU: 0xA1F4, offset: 0x320B83, size: 0x8, addend: 0x0, symName: __ZN4ggml3cpu6repack13tensor_traitsI10block_q4_0Lx4ELx4EL9ggml_type8EE6repackEP11ggml_tensorPKvm, symObjAddr: 0xA660, symBinAddr: 0x1247C0, symSize: 0x80 }
  - { offsetInCU: 0xA321, offset: 0x320CB0, size: 0x8, addend: 0x0, symName: __ZN4ggml3cpu6repack13tensor_traitsI10block_q4_0Lx8ELx4EL9ggml_type8EED0Ev, symObjAddr: 0xA6E0, symBinAddr: 0x124840, symSize: 0x20 }
  - { offsetInCU: 0xA3AB, offset: 0x320D3A, size: 0x8, addend: 0x0, symName: __ZN4ggml3cpu6repack13tensor_traitsI10block_q4_0Lx8ELx4EL9ggml_type8EE9work_sizeEiPK11ggml_tensorRm, symObjAddr: 0xA700, symBinAddr: 0x124860, symSize: 0x90 }
  - { offsetInCU: 0xA489, offset: 0x320E18, size: 0x8, addend: 0x0, symName: __ZN4ggml3cpu6repack13tensor_traitsI10block_q4_0Lx8ELx4EL9ggml_type8EE15compute_forwardEP19ggml_compute_paramsP11ggml_tensor, symObjAddr: 0xA790, symBinAddr: 0x1248F0, symSize: 0x30 }
  - { offsetInCU: 0xA4EE, offset: 0x320E7D, size: 0x8, addend: 0x0, symName: __ZN4ggml3cpu6repack13tensor_traitsI10block_q4_0Lx8ELx4EL9ggml_type8EE15forward_mul_matEP19ggml_compute_paramsP11ggml_tensor, symObjAddr: 0xB900, symBinAddr: 0x125A60, symSize: 0x570 }
  - { offsetInCU: 0xAA59, offset: 0x3213E8, size: 0x8, addend: 0x0, symName: __ZN4ggml3cpu6repack13tensor_traitsI10block_q4_0Lx8ELx4EL9ggml_type8EE6repackEP11ggml_tensorPKvm, symObjAddr: 0xA7C0, symBinAddr: 0x124920, symSize: 0x80 }
  - { offsetInCU: 0xAB60, offset: 0x3214EF, size: 0x8, addend: 0x0, symName: __ZN4ggml3cpu6repack13tensor_traitsI10block_q4_0Lx8ELx8EL9ggml_type8EED0Ev, symObjAddr: 0xA840, symBinAddr: 0x1249A0, symSize: 0x20 }
  - { offsetInCU: 0xABEA, offset: 0x321579, size: 0x8, addend: 0x0, symName: __ZN4ggml3cpu6repack13tensor_traitsI10block_q4_0Lx8ELx8EL9ggml_type8EE9work_sizeEiPK11ggml_tensorRm, symObjAddr: 0xA860, symBinAddr: 0x1249C0, symSize: 0x90 }
  - { offsetInCU: 0xACC8, offset: 0x321657, size: 0x8, addend: 0x0, symName: __ZN4ggml3cpu6repack13tensor_traitsI10block_q4_0Lx8ELx8EL9ggml_type8EE15compute_forwardEP19ggml_compute_paramsP11ggml_tensor, symObjAddr: 0xA8F0, symBinAddr: 0x124A50, symSize: 0x30 }
  - { offsetInCU: 0xAD2D, offset: 0x3216BC, size: 0x8, addend: 0x0, symName: __ZN4ggml3cpu6repack13tensor_traitsI10block_q4_0Lx8ELx8EL9ggml_type8EE15forward_mul_matEP19ggml_compute_paramsP11ggml_tensor, symObjAddr: 0xC5D0, symBinAddr: 0x126730, symSize: 0x570 }
  - { offsetInCU: 0xB298, offset: 0x321C27, size: 0x8, addend: 0x0, symName: __ZN4ggml3cpu6repack13tensor_traitsI10block_q4_0Lx8ELx8EL9ggml_type8EE6repackEP11ggml_tensorPKvm, symObjAddr: 0xA920, symBinAddr: 0x124A80, symSize: 0x70 }
  - { offsetInCU: 0xB364, offset: 0x321CF3, size: 0x8, addend: 0x0, symName: __ZN4ggml3cpu6repack13tensor_traitsI10block_q4_KLx8ELx8EL9ggml_type15EED0Ev, symObjAddr: 0xA990, symBinAddr: 0x124AF0, symSize: 0x20 }
  - { offsetInCU: 0xB3EE, offset: 0x321D7D, size: 0x8, addend: 0x0, symName: __ZN4ggml3cpu6repack13tensor_traitsI10block_q4_KLx8ELx8EL9ggml_type15EE9work_sizeEiPK11ggml_tensorRm, symObjAddr: 0xA9B0, symBinAddr: 0x124B10, symSize: 0x90 }
  - { offsetInCU: 0xB4CC, offset: 0x321E5B, size: 0x8, addend: 0x0, symName: __ZN4ggml3cpu6repack13tensor_traitsI10block_q4_KLx8ELx8EL9ggml_type15EE15compute_forwardEP19ggml_compute_paramsP11ggml_tensor, symObjAddr: 0xAA40, symBinAddr: 0x124BA0, symSize: 0x30 }
  - { offsetInCU: 0xB531, offset: 0x321EC0, size: 0x8, addend: 0x0, symName: __ZN4ggml3cpu6repack13tensor_traitsI10block_q4_KLx8ELx8EL9ggml_type15EE15forward_mul_matEP19ggml_compute_paramsP11ggml_tensor, symObjAddr: 0xD2A0, symBinAddr: 0x127400, symSize: 0x570 }
  - { offsetInCU: 0xBA9C, offset: 0x32242B, size: 0x8, addend: 0x0, symName: __ZN4ggml3cpu6repack13tensor_traitsI10block_q4_KLx8ELx8EL9ggml_type15EE6repackEP11ggml_tensorPKvm, symObjAddr: 0xAA70, symBinAddr: 0x124BD0, symSize: 0x70 }
  - { offsetInCU: 0xBB68, offset: 0x3224F7, size: 0x8, addend: 0x0, symName: __ZN4ggml3cpu6repack13tensor_traitsI12block_iq4_nlLx4ELx4EL9ggml_type8EED0Ev, symObjAddr: 0xAAE0, symBinAddr: 0x124C40, symSize: 0x20 }
  - { offsetInCU: 0xBBF2, offset: 0x322581, size: 0x8, addend: 0x0, symName: __ZN4ggml3cpu6repack13tensor_traitsI12block_iq4_nlLx4ELx4EL9ggml_type8EE9work_sizeEiPK11ggml_tensorRm, symObjAddr: 0xAB00, symBinAddr: 0x124C60, symSize: 0x90 }
  - { offsetInCU: 0xBCD0, offset: 0x32265F, size: 0x8, addend: 0x0, symName: __ZN4ggml3cpu6repack13tensor_traitsI12block_iq4_nlLx4ELx4EL9ggml_type8EE15compute_forwardEP19ggml_compute_paramsP11ggml_tensor, symObjAddr: 0xAB90, symBinAddr: 0x124CF0, symSize: 0x30 }
  - { offsetInCU: 0xBD35, offset: 0x3226C4, size: 0x8, addend: 0x0, symName: __ZN4ggml3cpu6repack13tensor_traitsI12block_iq4_nlLx4ELx4EL9ggml_type8EE15forward_mul_matEP19ggml_compute_paramsP11ggml_tensor, symObjAddr: 0xDF70, symBinAddr: 0x1280D0, symSize: 0x570 }
  - { offsetInCU: 0xC2A0, offset: 0x322C2F, size: 0x8, addend: 0x0, symName: __ZN4ggml3cpu6repack13tensor_traitsI12block_iq4_nlLx4ELx4EL9ggml_type8EE6repackEP11ggml_tensorPKvm, symObjAddr: 0xABC0, symBinAddr: 0x124D20, symSize: 0x70 }
  - { offsetInCU: 0xC4CB, offset: 0x322E5A, size: 0x8, addend: 0x0, symName: __ZN4ggml3cpu6repack17extra_buffer_typeD1Ev, symObjAddr: 0xEC40, symBinAddr: 0x128DA0, symSize: 0x10 }
  - { offsetInCU: 0xC528, offset: 0x322EB7, size: 0x8, addend: 0x0, symName: __ZN4ggml3cpu6repack17extra_buffer_typeD0Ev, symObjAddr: 0xEC50, symBinAddr: 0x128DB0, symSize: 0x20 }
  - { offsetInCU: 0xC593, offset: 0x322F22, size: 0x8, addend: 0x0, symName: __ZN4ggml3cpu6repack17extra_buffer_type11supports_opEP19ggml_backend_devicePK11ggml_tensor, symObjAddr: 0xEC70, symBinAddr: 0x128DD0, symSize: 0xF0 }
  - { offsetInCU: 0xC64C, offset: 0x322FDB, size: 0x8, addend: 0x0, symName: __ZN4ggml3cpu6repack17extra_buffer_type17get_tensor_traitsEPK11ggml_tensor, symObjAddr: 0xED60, symBinAddr: 0x128EC0, symSize: 0x54 }
  - { offsetInCU: 0x26, offset: 0x3230F7, size: 0x8, addend: 0x0, symName: __ZN4ggml3cpu13tensor_traitsD2Ev, symObjAddr: 0x0, symBinAddr: 0x128F20, symSize: 0x10 }
  - { offsetInCU: 0x3749, offset: 0x32681A, size: 0x8, addend: 0x0, symName: __ZN4ggml3cpu13tensor_traitsD2Ev, symObjAddr: 0x0, symBinAddr: 0x128F20, symSize: 0x10 }
  - { offsetInCU: 0x3774, offset: 0x326845, size: 0x8, addend: 0x0, symName: __ZN4ggml3cpu13tensor_traitsD1Ev, symObjAddr: 0x10, symBinAddr: 0x128F30, symSize: 0x10 }
  - { offsetInCU: 0x379D, offset: 0x32686E, size: 0x8, addend: 0x0, symName: __ZN4ggml3cpu13tensor_traitsD0Ev, symObjAddr: 0x20, symBinAddr: 0x128F40, symSize: 0x10 }
  - { offsetInCU: 0x37C6, offset: 0x326897, size: 0x8, addend: 0x0, symName: __ZN4ggml3cpu17extra_buffer_typeD2Ev, symObjAddr: 0x30, symBinAddr: 0x128F50, symSize: 0x10 }
  - { offsetInCU: 0x37F1, offset: 0x3268C2, size: 0x8, addend: 0x0, symName: __ZN4ggml3cpu17extra_buffer_typeD1Ev, symObjAddr: 0x40, symBinAddr: 0x128F60, symSize: 0x10 }
  - { offsetInCU: 0x381A, offset: 0x3268EB, size: 0x8, addend: 0x0, symName: __ZN4ggml3cpu17extra_buffer_typeD0Ev, symObjAddr: 0x50, symBinAddr: 0x128F70, symSize: 0x10 }
  - { offsetInCU: 0x389B, offset: 0x32696C, size: 0x8, addend: 0x0, symName: _ggml_cpu_extra_compute_forward, symObjAddr: 0x60, symBinAddr: 0x128F80, symSize: 0x70 }
  - { offsetInCU: 0x3A25, offset: 0x326AF6, size: 0x8, addend: 0x0, symName: _ggml_cpu_extra_work_size, symObjAddr: 0xD0, symBinAddr: 0x128FF0, symSize: 0x85 }
  - { offsetInCU: 0x26, offset: 0x326CAE, size: 0x8, addend: 0x0, symName: _ggml_compute_forward_abs, symObjAddr: 0x0, symBinAddr: 0x129080, symSize: 0x13E0 }
  - { offsetInCU: 0x39E6, offset: 0x32A66E, size: 0x8, addend: 0x0, symName: _ggml_compute_forward_abs, symObjAddr: 0x0, symBinAddr: 0x129080, symSize: 0x13E0 }
  - { offsetInCU: 0x506C, offset: 0x32BCF4, size: 0x8, addend: 0x0, symName: _ggml_compute_forward_sgn, symObjAddr: 0x13E0, symBinAddr: 0x12A460, symSize: 0x1320 }
  - { offsetInCU: 0x670B, offset: 0x32D393, size: 0x8, addend: 0x0, symName: _ggml_compute_forward_neg, symObjAddr: 0x2700, symBinAddr: 0x12B780, symSize: 0x1500 }
  - { offsetInCU: 0x7CEC, offset: 0x32E974, size: 0x8, addend: 0x0, symName: _ggml_compute_forward_step, symObjAddr: 0x3C00, symBinAddr: 0x12CC80, symSize: 0x1290 }
  - { offsetInCU: 0x92FE, offset: 0x32FF86, size: 0x8, addend: 0x0, symName: _ggml_compute_forward_tanh, symObjAddr: 0x4E90, symBinAddr: 0x12DF10, symSize: 0xBE0 }
  - { offsetInCU: 0xA9D2, offset: 0x33165A, size: 0x8, addend: 0x0, symName: _ggml_compute_forward_elu, symObjAddr: 0x5A70, symBinAddr: 0x12EAF0, symSize: 0xC50 }
  - { offsetInCU: 0xC09F, offset: 0x332D27, size: 0x8, addend: 0x0, symName: _ggml_compute_forward_relu, symObjAddr: 0x66C0, symBinAddr: 0x12F740, symSize: 0x12E0 }
  - { offsetInCU: 0xD722, offset: 0x3343AA, size: 0x8, addend: 0x0, symName: _ggml_compute_forward_sigmoid, symObjAddr: 0x79A0, symBinAddr: 0x130A20, symSize: 0x17E0 }
  - { offsetInCU: 0xED30, offset: 0x3359B8, size: 0x8, addend: 0x0, symName: _ggml_compute_forward_hardsigmoid, symObjAddr: 0x9180, symBinAddr: 0x132200, symSize: 0x1470 }
  - { offsetInCU: 0x10309, offset: 0x336F91, size: 0x8, addend: 0x0, symName: _ggml_compute_forward_exp, symObjAddr: 0xA5F0, symBinAddr: 0x133670, symSize: 0x16B0 }
  - { offsetInCU: 0x10F6D, offset: 0x337BF5, size: 0x8, addend: 0x0, symName: _ggml_compute_forward_hardswish, symObjAddr: 0xBCA0, symBinAddr: 0x134D20, symSize: 0x1520 }
  - { offsetInCU: 0x1197B, offset: 0x338603, size: 0x8, addend: 0x0, symName: _ggml_compute_forward_hardswish, symObjAddr: 0xBCA0, symBinAddr: 0x134D20, symSize: 0x1520 }
  - { offsetInCU: 0x12FFE, offset: 0x339C86, size: 0x8, addend: 0x0, symName: _ggml_compute_forward_sqr, symObjAddr: 0xD1C0, symBinAddr: 0x136240, symSize: 0x14A0 }
  - { offsetInCU: 0x14687, offset: 0x33B30F, size: 0x8, addend: 0x0, symName: _ggml_compute_forward_sqrt, symObjAddr: 0xE660, symBinAddr: 0x1376E0, symSize: 0x14A0 }
  - { offsetInCU: 0x15D0A, offset: 0x33C992, size: 0x8, addend: 0x0, symName: _ggml_compute_forward_sin, symObjAddr: 0xFB00, symBinAddr: 0x138B80, symSize: 0x16B0 }
  - { offsetInCU: 0x1696E, offset: 0x33D5F6, size: 0x8, addend: 0x0, symName: _ggml_compute_forward_cos, symObjAddr: 0x111B0, symBinAddr: 0x13A230, symSize: 0x16B0 }
  - { offsetInCU: 0x1737C, offset: 0x33E004, size: 0x8, addend: 0x0, symName: _ggml_compute_forward_cos, symObjAddr: 0x111B0, symBinAddr: 0x13A230, symSize: 0x16B0 }
  - { offsetInCU: 0x17FE0, offset: 0x33EC68, size: 0x8, addend: 0x0, symName: _ggml_compute_forward_log, symObjAddr: 0x12860, symBinAddr: 0x13B8E0, symSize: 0x16B0 }
  - { offsetInCU: 0x189EE, offset: 0x33F676, size: 0x8, addend: 0x0, symName: _ggml_compute_forward_log, symObjAddr: 0x12860, symBinAddr: 0x13B8E0, symSize: 0x16B0 }
  - { offsetInCU: 0x26, offset: 0x340313, size: 0x8, addend: 0x0, symName: _ggml_vec_dot_f32, symObjAddr: 0x0, symBinAddr: 0x13CF90, symSize: 0x1B0 }
  - { offsetInCU: 0x40, offset: 0x34032D, size: 0x8, addend: 0x0, symName: _ggml_table_gelu_f16, symObjAddr: 0x9AA0, symBinAddr: 0x252160, symSize: 0x0 }
  - { offsetInCU: 0x75, offset: 0x340362, size: 0x8, addend: 0x0, symName: _ggml_table_gelu_quick_f16, symObjAddr: 0x29AA0, symBinAddr: 0x272160, symSize: 0x0 }
  - { offsetInCU: 0x2C4E, offset: 0x342F3B, size: 0x8, addend: 0x0, symName: _ggml_vec_dot_f32, symObjAddr: 0x0, symBinAddr: 0x13CF90, symSize: 0x1B0 }
  - { offsetInCU: 0x2E0A, offset: 0x3430F7, size: 0x8, addend: 0x0, symName: _ggml_vec_dot_bf16, symObjAddr: 0x1B0, symBinAddr: 0x13D140, symSize: 0xD0 }
  - { offsetInCU: 0x2F5C, offset: 0x343249, size: 0x8, addend: 0x0, symName: _ggml_vec_dot_f16, symObjAddr: 0x280, symBinAddr: 0x13D210, symSize: 0x250 }
  - { offsetInCU: 0x326A, offset: 0x343557, size: 0x8, addend: 0x0, symName: _ggml_vec_silu_f32, symObjAddr: 0x4D0, symBinAddr: 0x13D460, symSize: 0x370 }
  - { offsetInCU: 0x3346, offset: 0x343633, size: 0x8, addend: 0x0, symName: _ggml_vec_soft_max_f32, symObjAddr: 0x840, symBinAddr: 0x13D7D0, symSize: 0x290 }
  - { offsetInCU: 0x343A, offset: 0x343727, size: 0x8, addend: 0x0, symName: _ggml_vec_log_soft_max_f32, symObjAddr: 0xAD0, symBinAddr: 0x13DA60, symSize: 0xF7 }
  - { offsetInCU: 0x27, offset: 0x34382A, size: 0x8, addend: 0x0, symName: '-[ggml_metal_heap_ptr data]', symObjAddr: 0x0, symBinAddr: 0x13DB60, symSize: 0x10 }
  - { offsetInCU: 0x35, offset: 0x343838, size: 0x8, addend: 0x0, symName: _ggml_backend_metal_buffer_type, symObjAddr: 0x20, symBinAddr: 0x13DB80, symSize: 0x10 }
  - { offsetInCU: 0x5D, offset: 0x343860, size: 0x8, addend: 0x0, symName: _ggml_backend_metal_buffer_type.ggml_backend_buffer_type_metal, symObjAddr: 0x20F00, symBinAddr: 0x1A54D0, symSize: 0x0 }
  - { offsetInCU: 0xF63, offset: 0x344766, size: 0x8, addend: 0x0, symName: _g_ggml_backend_metal_reg, symObjAddr: 0x7F610, symBinAddr: 0x212098, symSize: 0x0 }
  - { offsetInCU: 0xF79, offset: 0x34477C, size: 0x8, addend: 0x0, symName: _g_ggml_backend_metal_device, symObjAddr: 0x7F4E8, symBinAddr: 0x211F70, symSize: 0x0 }
  - { offsetInCU: 0xF8F, offset: 0x344792, size: 0x8, addend: 0x0, symName: _g_ggml_ctx_dev_main, symObjAddr: 0x7F570, symBinAddr: 0x211FF8, symSize: 0x0 }
  - { offsetInCU: 0x1088, offset: 0x34488B, size: 0x8, addend: 0x0, symName: _ggml_backend_metal_buffer_i, symObjAddr: 0x20F40, symBinAddr: 0x1A5510, symSize: 0x0 }
  - { offsetInCU: 0x109F, offset: 0x3448A2, size: 0x8, addend: 0x0, symName: _ggml_backend_metal_i, symObjAddr: 0x26FD8, symBinAddr: 0x1A1A80, symSize: 0x0 }
  - { offsetInCU: 0x10B6, offset: 0x3448B9, size: 0x8, addend: 0x0, symName: _ggml_backend_metal_reg_i, symObjAddr: 0x27040, symBinAddr: 0x1A1AE8, symSize: 0x0 }
  - { offsetInCU: 0x10CD, offset: 0x3448D0, size: 0x8, addend: 0x0, symName: _g_ggml_backend_metal_features, symObjAddr: 0x20FE0, symBinAddr: 0x1A55B0, symSize: 0x0 }
  - { offsetInCU: 0x1116, offset: 0x344919, size: 0x8, addend: 0x0, symName: _ggml_backend_metal_device_i, symObjAddr: 0x27060, symBinAddr: 0x1A1B08, symSize: 0x0 }
  - { offsetInCU: 0x1818, offset: 0x34501B, size: 0x8, addend: 0x0, symName: '-[ggml_metal_heap_ptr data]', symObjAddr: 0x0, symBinAddr: 0x13DB60, symSize: 0x10 }
  - { offsetInCU: 0x184E, offset: 0x345051, size: 0x8, addend: 0x0, symName: '-[ggml_metal_heap_ptr setData:]', symObjAddr: 0x10, symBinAddr: 0x13DB70, symSize: 0x10 }
  - { offsetInCU: 0x188C, offset: 0x34508F, size: 0x8, addend: 0x0, symName: _ggml_backend_metal_buffer_type_get_name, symObjAddr: 0x30, symBinAddr: 0x13DB90, symSize: 0x10 }
  - { offsetInCU: 0x193D, offset: 0x345140, size: 0x8, addend: 0x0, symName: _ggml_backend_metal_buffer_type_alloc_buffer, symObjAddr: 0x40, symBinAddr: 0x13DBA0, symSize: 0x230 }
  - { offsetInCU: 0x1B3B, offset: 0x34533E, size: 0x8, addend: 0x0, symName: _ggml_backend_metal_device_acq, symObjAddr: 0x630, symBinAddr: 0x13E190, symSize: 0xE0 }
  - { offsetInCU: 0x1C72, offset: 0x345475, size: 0x8, addend: 0x0, symName: _ggml_backend_metal_buffer_type_get_alignment, symObjAddr: 0x270, symBinAddr: 0x13DDD0, symSize: 0x10 }
  - { offsetInCU: 0x1C9B, offset: 0x34549E, size: 0x8, addend: 0x0, symName: _ggml_backend_metal_buffer_type_get_max_size, symObjAddr: 0x280, symBinAddr: 0x13DDE0, symSize: 0x80 }
  - { offsetInCU: 0x1D3B, offset: 0x34553E, size: 0x8, addend: 0x0, symName: _ggml_backend_metal_buffer_type_is_host, symObjAddr: 0x300, symBinAddr: 0x13DE60, symSize: 0x10 }
  - { offsetInCU: 0x1D64, offset: 0x345567, size: 0x8, addend: 0x0, symName: _ggml_backend_metal_buffer_from_ptr, symObjAddr: 0x310, symBinAddr: 0x13DE70, symSize: 0x320 }
  - { offsetInCU: 0x1FFC, offset: 0x3457FF, size: 0x8, addend: 0x0, symName: _ggml_backend_metal_init, symObjAddr: 0x710, symBinAddr: 0x13E270, symSize: 0x270 }
  - { offsetInCU: 0x2123, offset: 0x345926, size: 0x8, addend: 0x0, symName: _ggml_metal_init, symObjAddr: 0xA90, symBinAddr: 0x13E5F0, symSize: 0x11590 }
  - { offsetInCU: 0x15823, offset: 0x359026, size: 0x8, addend: 0x0, symName: _ggml_backend_metal_reg, symObjAddr: 0x980, symBinAddr: 0x13E4E0, symSize: 0x110 }
  - { offsetInCU: 0x15B22, offset: 0x359325, size: 0x8, addend: 0x0, symName: _ggml_backend_is_metal, symObjAddr: 0x12020, symBinAddr: 0x14FB80, symSize: 0x20 }
  - { offsetInCU: 0x15B4F, offset: 0x359352, size: 0x8, addend: 0x0, symName: _ggml_backend_metal_set_abort_callback, symObjAddr: 0x12040, symBinAddr: 0x14FBA0, symSize: 0x70 }
  - { offsetInCU: 0x15BF1, offset: 0x3593F4, size: 0x8, addend: 0x0, symName: _ggml_backend_metal_supports_family, symObjAddr: 0x120B0, symBinAddr: 0x14FC10, symSize: 0x70 }
  - { offsetInCU: 0x15C92, offset: 0x359495, size: 0x8, addend: 0x0, symName: _ggml_backend_metal_capture_next_compute, symObjAddr: 0x12120, symBinAddr: 0x14FC80, symSize: 0x60 }
  - { offsetInCU: 0x15D12, offset: 0x359515, size: 0x8, addend: 0x0, symName: _ggml_backend_metal_buffer_from_ptr_type_get_name, symObjAddr: 0x12180, symBinAddr: 0x14FCE0, symSize: 0x10 }
  - { offsetInCU: 0x15D3B, offset: 0x35953E, size: 0x8, addend: 0x0, symName: _ggml_backend_metal_buffer_free_buffer, symObjAddr: 0x12190, symBinAddr: 0x14FCF0, symSize: 0xB0 }
  - { offsetInCU: 0x15DD8, offset: 0x3595DB, size: 0x8, addend: 0x0, symName: _ggml_backend_metal_buffer_get_base, symObjAddr: 0x12240, symBinAddr: 0x14FDA0, symSize: 0x10 }
  - { offsetInCU: 0x15E14, offset: 0x359617, size: 0x8, addend: 0x0, symName: _ggml_backend_metal_buffer_memset_tensor, symObjAddr: 0x12250, symBinAddr: 0x14FDB0, symSize: 0x20 }
  - { offsetInCU: 0x15E7B, offset: 0x35967E, size: 0x8, addend: 0x0, symName: _ggml_backend_metal_buffer_set_tensor, symObjAddr: 0x12270, symBinAddr: 0x14FDD0, symSize: 0x20 }
  - { offsetInCU: 0x15EE2, offset: 0x3596E5, size: 0x8, addend: 0x0, symName: _ggml_backend_metal_buffer_get_tensor, symObjAddr: 0x12290, symBinAddr: 0x14FDF0, symSize: 0x20 }
  - { offsetInCU: 0x15F49, offset: 0x35974C, size: 0x8, addend: 0x0, symName: _ggml_backend_metal_buffer_cpy_tensor, symObjAddr: 0x122B0, symBinAddr: 0x14FE10, symSize: 0x50 }
  - { offsetInCU: 0x15FDF, offset: 0x3597E2, size: 0x8, addend: 0x0, symName: _ggml_backend_metal_buffer_clear, symObjAddr: 0x12300, symBinAddr: 0x14FE60, symSize: 0x20 }
  - { offsetInCU: 0x16028, offset: 0x35982B, size: 0x8, addend: 0x0, symName: _ggml_backend_metal_name, symObjAddr: 0x12320, symBinAddr: 0x14FE80, symSize: 0x10 }
  - { offsetInCU: 0x16111, offset: 0x359914, size: 0x8, addend: 0x0, symName: _ggml_backend_metal_free, symObjAddr: 0x12330, symBinAddr: 0x14FE90, symSize: 0x6D0 }
  - { offsetInCU: 0x16A38, offset: 0x35A23B, size: 0x8, addend: 0x0, symName: _ggml_backend_metal_graph_compute, symObjAddr: 0x12A00, symBinAddr: 0x150560, symSize: 0x540 }
  - { offsetInCU: 0x16E5C, offset: 0x35A65F, size: 0x8, addend: 0x0, symName: _ggml_metal_heap_reset, symObjAddr: 0x12F40, symBinAddr: 0x150AA0, symSize: 0x170 }
  - { offsetInCU: 0x16F78, offset: 0x35A77B, size: 0x8, addend: 0x0, symName: ___ggml_backend_metal_set_n_cb_block_invoke, symObjAddr: 0x130B0, symBinAddr: 0x150C10, symSize: 0x3E0 }
  - { offsetInCU: 0x1741F, offset: 0x35AC22, size: 0x8, addend: 0x0, symName: _ggml_metal_encode_node, symObjAddr: 0x13490, symBinAddr: 0x150FF0, symSize: 0xC270 }
  - { offsetInCU: 0x1F710, offset: 0x362F13, size: 0x8, addend: 0x0, symName: _ggml_metal_supports_op, symObjAddr: 0x1F700, symBinAddr: 0x15D260, symSize: 0x3B0 }
  - { offsetInCU: 0x1F84E, offset: 0x363051, size: 0x8, addend: 0x0, symName: _ggml_metal_get_buffer, symObjAddr: 0x1FAB0, symBinAddr: 0x15D610, symSize: 0xB0 }
  - { offsetInCU: 0x1F978, offset: 0x36317B, size: 0x8, addend: 0x0, symName: _ggml_metal_mem_pool_alloc, symObjAddr: 0x1FB60, symBinAddr: 0x15D6C0, symSize: 0x400 }
  - { offsetInCU: 0x1FDA6, offset: 0x3635A9, size: 0x8, addend: 0x0, symName: _ggml_backend_metal_reg_get_name, symObjAddr: 0x1FF60, symBinAddr: 0x15DAC0, symSize: 0x10 }
  - { offsetInCU: 0x1FDCF, offset: 0x3635D2, size: 0x8, addend: 0x0, symName: _ggml_backend_metal_reg_device_count, symObjAddr: 0x1FF70, symBinAddr: 0x15DAD0, symSize: 0x10 }
  - { offsetInCU: 0x1FDF8, offset: 0x3635FB, size: 0x8, addend: 0x0, symName: _ggml_backend_metal_reg_device_get, symObjAddr: 0x1FF80, symBinAddr: 0x15DAE0, symSize: 0x40 }
  - { offsetInCU: 0x1FE49, offset: 0x36364C, size: 0x8, addend: 0x0, symName: _ggml_backend_metal_get_proc_address, symObjAddr: 0x1FFC0, symBinAddr: 0x15DB20, symSize: 0x30 }
  - { offsetInCU: 0x1FE83, offset: 0x363686, size: 0x8, addend: 0x0, symName: _ggml_backend_metal_get_features, symObjAddr: 0x1FFF0, symBinAddr: 0x15DB50, symSize: 0x10 }
  - { offsetInCU: 0x1FEAC, offset: 0x3636AF, size: 0x8, addend: 0x0, symName: _ggml_backend_metal_device_get_name, symObjAddr: 0x20000, symBinAddr: 0x15DB60, symSize: 0x10 }
  - { offsetInCU: 0x1FED5, offset: 0x3636D8, size: 0x8, addend: 0x0, symName: _ggml_backend_metal_device_get_description, symObjAddr: 0x20010, symBinAddr: 0x15DB70, symSize: 0x60 }
  - { offsetInCU: 0x1FF4B, offset: 0x36374E, size: 0x8, addend: 0x0, symName: _ggml_backend_metal_device_get_memory, symObjAddr: 0x20070, symBinAddr: 0x15DBD0, symSize: 0xA0 }
  - { offsetInCU: 0x2000E, offset: 0x363811, size: 0x8, addend: 0x0, symName: _ggml_backend_metal_device_get_type, symObjAddr: 0x20110, symBinAddr: 0x15DC70, symSize: 0x10 }
  - { offsetInCU: 0x200AF, offset: 0x3638B2, size: 0x8, addend: 0x0, symName: _ggml_backend_metal_device_get_props, symObjAddr: 0x20120, symBinAddr: 0x15DC80, symSize: 0x100 }
  - { offsetInCU: 0x20224, offset: 0x363A27, size: 0x8, addend: 0x0, symName: _ggml_backend_metal_device_init, symObjAddr: 0x20220, symBinAddr: 0x15DD80, symSize: 0x160 }
  - { offsetInCU: 0x2031D, offset: 0x363B20, size: 0x8, addend: 0x0, symName: _ggml_backend_metal_device_get_buffer_type, symObjAddr: 0x20380, symBinAddr: 0x15DEE0, symSize: 0x10 }
  - { offsetInCU: 0x20346, offset: 0x363B49, size: 0x8, addend: 0x0, symName: _ggml_backend_metal_device_buffer_from_ptr, symObjAddr: 0x20390, symBinAddr: 0x15DEF0, symSize: 0x320 }
  - { offsetInCU: 0x20587, offset: 0x363D8A, size: 0x8, addend: 0x0, symName: _ggml_backend_metal_device_supports_op, symObjAddr: 0x206B0, symBinAddr: 0x15E210, symSize: 0x20 }
  - { offsetInCU: 0x205EB, offset: 0x363DEE, size: 0x8, addend: 0x0, symName: _ggml_backend_metal_device_supports_buft, symObjAddr: 0x206D0, symBinAddr: 0x15E230, symSize: 0x30 }
  - { offsetInCU: 0x20623, offset: 0x363E26, size: 0x8, addend: 0x0, symName: _ggml_backend_metal_device_offload_op, symObjAddr: 0x20700, symBinAddr: 0x15E260, symSize: 0x8 }
  - { offsetInCU: 0x46, offset: 0x365A05, size: 0x8, addend: 0x0, symName: _ggml_backend_blas_reg, symObjAddr: 0xD0, symBinAddr: 0x15E340, symSize: 0x10 }
  - { offsetInCU: 0x6E, offset: 0x365A2D, size: 0x8, addend: 0x0, symName: __ZZ21ggml_backend_blas_regE21ggml_backend_blas_reg, symObjAddr: 0x1F00, symBinAddr: 0x1A55E0, symSize: 0x0 }
  - { offsetInCU: 0xE3, offset: 0x365AA2, size: 0x8, addend: 0x0, symName: __ZL14blas_backend_i, symObjAddr: 0x1BC8, symBinAddr: 0x1A1BA0, symSize: 0x0 }
  - { offsetInCU: 0xF1, offset: 0x365AB0, size: 0x8, addend: 0x0, symName: __ZL32ggml_backend_blas_reg_get_deviceP16ggml_backend_regm, symObjAddr: 0x170, symBinAddr: 0x15E3E0, symSize: 0xF0 }
  - { offsetInCU: 0x11D, offset: 0x365ADC, size: 0x8, addend: 0x0, symName: __ZZL32ggml_backend_blas_reg_get_deviceP16ggml_backend_regmE24ggml_backend_blas_device, symObjAddr: 0x3BE40, symBinAddr: 0x2120C8, symSize: 0x0 }
  - { offsetInCU: 0x16E, offset: 0x365B2D, size: 0x8, addend: 0x0, symName: __ZL26ggml_backend_blas_device_i, symObjAddr: 0x1C78, symBinAddr: 0x1A1C50, symSize: 0x0 }
  - { offsetInCU: 0x4938, offset: 0x36A2F7, size: 0x8, addend: 0x0, symName: '__ZNSt3__114__thread_proxyB8ue170006INS_5tupleIJNS_10unique_ptrINS_15__thread_structENS_14default_deleteIS3_EEEEMNS_19__async_assoc_stateIvNS_12__async_funcIZL25ggml_backend_blas_mul_matP25ggml_backend_blas_contextP11ggml_tensorE3$_0JEEEEEFvvEPSF_EEEEEPvSK_', symObjAddr: 0x16E0, symBinAddr: 0x15F880, symSize: 0x90 }
  - { offsetInCU: 0x72A4, offset: 0x36CC63, size: 0x8, addend: 0x0, symName: _ggml_backend_blas_init, symObjAddr: 0x0, symBinAddr: 0x15E270, symSize: 0xD0 }
  - { offsetInCU: 0x7336, offset: 0x36CCF5, size: 0x8, addend: 0x0, symName: _ggml_backend_is_blas, symObjAddr: 0xE0, symBinAddr: 0x15E350, symSize: 0x20 }
  - { offsetInCU: 0x7396, offset: 0x36CD55, size: 0x8, addend: 0x0, symName: _ggml_backend_blas_set_n_threads, symObjAddr: 0x100, symBinAddr: 0x15E370, symSize: 0x50 }
  - { offsetInCU: 0x7412, offset: 0x36CDD1, size: 0x8, addend: 0x0, symName: __ZL30ggml_backend_blas_reg_get_nameP16ggml_backend_reg, symObjAddr: 0x150, symBinAddr: 0x15E3C0, symSize: 0x10 }
  - { offsetInCU: 0x7440, offset: 0x36CDFF, size: 0x8, addend: 0x0, symName: __ZL30ggml_backend_blas_reg_get_nameP16ggml_backend_reg, symObjAddr: 0x150, symBinAddr: 0x15E3C0, symSize: 0x10 }
  - { offsetInCU: 0x746C, offset: 0x36CE2B, size: 0x8, addend: 0x0, symName: __ZL38ggml_backend_blas_reg_get_device_countP16ggml_backend_reg, symObjAddr: 0x160, symBinAddr: 0x15E3D0, symSize: 0x10 }
  - { offsetInCU: 0x7498, offset: 0x36CE57, size: 0x8, addend: 0x0, symName: __ZL34ggml_backend_blas_get_proc_addressP16ggml_backend_regPKc, symObjAddr: 0x260, symBinAddr: 0x15E4D0, symSize: 0x30 }
  - { offsetInCU: 0x74D6, offset: 0x36CE95, size: 0x8, addend: 0x0, symName: __ZL26ggml_backend_blas_get_nameP12ggml_backend, symObjAddr: 0x2A0, symBinAddr: 0x15E500, symSize: 0x10 }
  - { offsetInCU: 0x7722, offset: 0x36D0E1, size: 0x8, addend: 0x0, symName: __ZL22ggml_backend_blas_freeP12ggml_backend, symObjAddr: 0x2B0, symBinAddr: 0x15E510, symSize: 0x90 }
  - { offsetInCU: 0x8DB6, offset: 0x36E775, size: 0x8, addend: 0x0, symName: __ZL31ggml_backend_blas_graph_computeP12ggml_backendP11ggml_cgraph, symObjAddr: 0x340, symBinAddr: 0x15E5A0, symSize: 0x1150 }
  - { offsetInCU: 0xA60C, offset: 0x36FFCB, size: 0x8, addend: 0x0, symName: __ZNKSt3__16vectorINS_6futureIvEENS_9allocatorIS2_EEE20__throw_length_errorB8ue170006Ev, symObjAddr: 0x1490, symBinAddr: 0x15F6F0, symSize: 0x10 }
  - { offsetInCU: 0xA6F5, offset: 0x3700B4, size: 0x8, addend: 0x0, symName: '__ZNSt3__119__async_assoc_stateIvNS_12__async_funcIZL25ggml_backend_blas_mul_matP25ggml_backend_blas_contextP11ggml_tensorE3$_0JEEEED1Ev', symObjAddr: 0x1560, symBinAddr: 0x15F700, symSize: 0x40 }
  - { offsetInCU: 0xA777, offset: 0x370136, size: 0x8, addend: 0x0, symName: '__ZNSt3__119__async_assoc_stateIvNS_12__async_funcIZL25ggml_backend_blas_mul_matP25ggml_backend_blas_contextP11ggml_tensorE3$_0JEEEED0Ev', symObjAddr: 0x15A0, symBinAddr: 0x15F740, symSize: 0x50 }
  - { offsetInCU: 0xA808, offset: 0x3701C7, size: 0x8, addend: 0x0, symName: '__ZNSt3__119__async_assoc_stateIvNS_12__async_funcIZL25ggml_backend_blas_mul_matP25ggml_backend_blas_contextP11ggml_tensorE3$_0JEEEE16__on_zero_sharedEv', symObjAddr: 0x15F0, symBinAddr: 0x15F790, symSize: 0x30 }
  - { offsetInCU: 0xA8A0, offset: 0x37025F, size: 0x8, addend: 0x0, symName: '__ZNSt3__119__async_assoc_stateIvNS_12__async_funcIZL25ggml_backend_blas_mul_matP25ggml_backend_blas_contextP11ggml_tensorE3$_0JEEEE9__executeEv', symObjAddr: 0x1620, symBinAddr: 0x15F7C0, symSize: 0xC0 }
  - { offsetInCU: 0xAB2D, offset: 0x3704EC, size: 0x8, addend: 0x0, symName: '__ZNSt3__110unique_ptrINS_5tupleIJNS0_INS_15__thread_structENS_14default_deleteIS2_EEEEMNS_19__async_assoc_stateIvNS_12__async_funcIZL25ggml_backend_blas_mul_matP25ggml_backend_blas_contextP11ggml_tensorE3$_0JEEEEEFvvEPSE_EEENS3_ISI_EEED1B8ue170006Ev', symObjAddr: 0x1770, symBinAddr: 0x15F910, symSize: 0x50 }
  - { offsetInCU: 0xACF2, offset: 0x3706B1, size: 0x8, addend: 0x0, symName: __ZL33ggml_backend_blas_device_get_nameP19ggml_backend_device, symObjAddr: 0x17C0, symBinAddr: 0x15F960, symSize: 0x10 }
  - { offsetInCU: 0xAD1E, offset: 0x3706DD, size: 0x8, addend: 0x0, symName: __ZL40ggml_backend_blas_device_get_descriptionP19ggml_backend_device, symObjAddr: 0x17D0, symBinAddr: 0x15F970, symSize: 0x10 }
  - { offsetInCU: 0xAD4B, offset: 0x37070A, size: 0x8, addend: 0x0, symName: __ZL35ggml_backend_blas_device_get_memoryP19ggml_backend_devicePmS1_, symObjAddr: 0x17E0, symBinAddr: 0x15F980, symSize: 0x20 }
  - { offsetInCU: 0xAD75, offset: 0x370734, size: 0x8, addend: 0x0, symName: __ZL33ggml_backend_blas_device_get_typeP19ggml_backend_device, symObjAddr: 0x1800, symBinAddr: 0x15F9A0, symSize: 0x10 }
  - { offsetInCU: 0xADD5, offset: 0x370794, size: 0x8, addend: 0x0, symName: __ZL34ggml_backend_blas_device_get_propsP19ggml_backend_deviceP22ggml_backend_dev_props, symObjAddr: 0x1810, symBinAddr: 0x15F9B0, symSize: 0x30 }
  - { offsetInCU: 0xAE5F, offset: 0x37081E, size: 0x8, addend: 0x0, symName: __ZL37ggml_backend_blas_device_init_backendP19ggml_backend_devicePKc, symObjAddr: 0x1840, symBinAddr: 0x15F9E0, symSize: 0xD0 }
  - { offsetInCU: 0xAF0C, offset: 0x3708CB, size: 0x8, addend: 0x0, symName: __ZL40ggml_backend_blas_device_get_buffer_typeP19ggml_backend_device, symObjAddr: 0x1910, symBinAddr: 0x15FAB0, symSize: 0x10 }
  - { offsetInCU: 0xAF53, offset: 0x370912, size: 0x8, addend: 0x0, symName: __ZL45ggml_backend_blas_device_buffer_from_host_ptrP19ggml_backend_devicePvmm, symObjAddr: 0x1920, symBinAddr: 0x15FAC0, symSize: 0x10 }
  - { offsetInCU: 0xAFE2, offset: 0x3709A1, size: 0x8, addend: 0x0, symName: __ZL36ggml_backend_blas_device_supports_opP19ggml_backend_devicePK11ggml_tensor, symObjAddr: 0x1930, symBinAddr: 0x15FAD0, symSize: 0x190 }
  - { offsetInCU: 0xB180, offset: 0x370B3F, size: 0x8, addend: 0x0, symName: __ZL38ggml_backend_blas_device_supports_buftP19ggml_backend_deviceP24ggml_backend_buffer_type, symObjAddr: 0x1AC0, symBinAddr: 0x15FC60, symSize: 0xD }
...
